(dp1
(ccopy_reg
_reconstructor
p2
(c__main__
State
p3
c__builtin__
tuple
p4
(F2
I01
I00
I2
I9
ttRp5
S'move -0.6'
p6
tp7
F43.771307632324465
s(g2
(g3
g4
(F10
I00
I00
I2
I13
ttRp8
S'move 0.6'
p9
tp10
F35.448402323512695
s(g2
(g3
g4
(F5
I00
I00
I0
I7
ttRp11
S'strafe 0.6'
p12
tp13
F3.150488001447783
s(g2
(g3
g4
(F10
I00
I00
I0
I7
ttRp14
g6
tp15
F3.1142839779922413
s(g2
(g3
g4
(F1
I00
I00
I1
I11
ttRp16
S'strafe -0.6'
p17
tp18
F14.224596345356185
s(g2
(g3
g4
(F1
I00
I00
I1
I5
ttRp19
S'attack 1'
p20
tp21
F5.7038312330620693
s(g2
(g3
g4
(F4
I00
I00
I2
I9
ttRp22
g6
tp23
F55.345466959790066
s(g2
(g3
g4
(F10
I00
I00
I2
I15
ttRp24
g20
tp25
F28.708595975881344
s(g2
(g3
g4
(F9
I00
I00
I0
I7
ttRp26
g17
tp27
F2.593778021380706
s(g2
(g3
g4
(F6
I00
I00
I0
I5
ttRp28
g9
tp29
F9.5932441008525675
s(g2
(g3
g4
(F10
I00
I00
I1
I5
ttRp30
g9
tp31
F33.832626020723509
s(g2
(g3
g4
(F10
I00
I00
I4
I11
ttRp32
g6
tp33
F17.693894162816513
s(g2
(g3
g4
(F6
I00
I00
I0
I7
ttRp34
g20
tp35
F17.33730370910375
s(g2
(g3
g4
(F0
I00
I00
I2
I14
ttRp36
g17
tp37
I0
s(g2
(g3
g4
(F0
I00
I00
I3
I7
ttRp38
g17
tp39
I0
s(g2
(g3
g4
(F1
I00
I00
I2
I14
ttRp40
g20
tp41
I0
s(g2
(g3
g4
(F6
I00
I00
I1
I15
ttRp42
g9
tp43
F9.3754647811459222
s(g2
(g3
g4
(F1
I01
I00
I3
I15
ttRp44
g17
tp45
F29.295578379205331
s(g2
(g3
g4
(F7
I00
I00
I1
I5
ttRp46
g12
tp47
F12.045356969022816
s(g2
(g3
g4
(F5
I00
I00
I4
I5
ttRp48
g17
tp49
I0
s(g2
(g3
g4
(F0
I00
I00
I1
I13
ttRp50
g20
tp51
I0
s(g2
(g3
g4
(F2
I01
I00
I4
I11
ttRp52
g9
tp53
F-11.909531355449731
s(g2
(g3
g4
(F9
I00
I00
I3
I11
ttRp54
g12
tp55
F-3.868077347250809
s(g2
(g3
g4
(F9
I00
I00
I4
I15
ttRp56
g20
tp57
F2.1381488960178032
s(g2
(g3
g4
(F10
I00
I00
I4
I7
ttRp58
g12
tp59
F4.4768708221520157
s(g2
(g3
g4
(F10
I00
I00
I4
I5
ttRp60
g9
tp61
F5.0881536813855703
s(g2
(g3
g4
(F5
I00
I00
I2
I13
ttRp62
g12
tp63
F23.302959039658777
s(g2
(g3
g4
(F9
I00
I00
I2
I7
ttRp64
g9
tp65
F-0.23758032613842706
s(g2
(g3
g4
(F2
I00
I00
I3
I11
ttRp66
g6
tp67
F54.028799742244949
s(g2
(g3
g4
(F9
I00
I00
I1
I9
ttRp68
g9
tp69
F3.5972762910656608
s(g2
(g3
g4
(F2
I00
I00
I4
I5
ttRp70
g17
tp71
F7.6227773351976085
s(g2
(g3
g4
(F9
I00
I00
I4
I7
ttRp72
g9
tp73
F-0.22145703026734165
s(g2
(g3
g4
(F0
I00
I00
I1
I5
ttRp74
g17
tp75
F18.720802947913562
s(g2
(g3
g4
(F10
I00
I00
I0
I5
ttRp76
g20
tp77
F7.3950861705935429
s(g2
(g3
g4
(F1
I01
I00
I3
I13
ttRp78
g12
tp79
F-5.1907272439507812
s(g2
(g3
g4
(F10
I00
I00
I0
I13
ttRp80
g9
tp81
F23.561743623026462
s(g2
(g3
g4
(F3
I01
I00
I1
I15
ttRp82
g9
tp83
I0
s(g2
(g3
g4
(F5
I00
I00
I4
I11
ttRp84
g20
tp85
F6.5066820960770126
s(g2
(g3
g4
(F6
I00
I00
I1
I11
ttRp86
g12
tp87
F-2.4885150810952643
s(g2
(g3
g4
(F2
I01
I00
I1
I15
ttRp88
g17
tp89
F37.263225423139488
s(g2
(g3
g4
(F7
I00
I00
I3
I15
ttRp90
g6
tp91
F29.098700396661293
s(g2
(g3
g4
(F2
I00
I00
I2
I15
ttRp92
g12
tp93
F43.020483395759435
s(g2
(g3
g4
(F10
I01
I00
I4
I13
ttRp94
g6
tp95
I0
s(g2
(g3
g4
(F0
I00
I00
I2
I15
ttRp96
g17
tp97
F59.386281354700245
s(g2
(g3
g4
(F3
I01
I00
I3
I11
ttRp98
g20
tp99
I0
s(g2
(g3
g4
(F4
I00
I00
I3
I13
ttRp100
g6
tp101
F30.274145226727477
s(g2
(g3
g4
(F6
I00
I00
I1
I7
ttRp102
g20
tp103
F-0.73431999999999997
s(g2
(g3
g4
(F8
I00
I00
I2
I7
ttRp104
g9
tp105
F3.605290500734601
s(g2
(g3
g4
(F9
I00
I00
I0
I11
ttRp106
g9
tp107
F0.04496641331200002
s(g2
(g3
g4
(F6
I00
I00
I3
I5
ttRp108
g20
tp109
I0
s(g2
(g3
g4
(F8
I00
I00
I3
I9
ttRp110
g20
tp111
F21.124567941005846
s(g2
(g3
g4
(F9
I00
I00
I1
I7
ttRp112
g17
tp113
F-1
s(g2
(g3
g4
(F8
I00
I00
I3
I15
ttRp114
g20
tp115
F6.1871817749845084
s(g2
(g3
g4
(F3
I01
I00
I1
I11
ttRp116
g12
tp117
F14.084749612797042
s(g2
(g3
g4
(F3
I00
I00
I0
I5
ttRp118
g20
tp119
F19.543507712440963
s(g2
(g3
g4
(F2
I00
I00
I1
I13
ttRp120
g6
tp121
F12.077393315957231
s(g2
(g3
g4
(F5
I00
I00
I0
I9
ttRp122
g12
tp123
F-3.5094264159810411
s(g2
(g3
g4
(F1
I01
I00
I2
I9
ttRp124
g6
tp125
F-1.4728000000000001
s(g2
(g3
g4
(F3
I01
I00
I3
I9
ttRp126
g17
tp127
I0
s(g40
g12
tp128
I0
s(g2
(g3
g4
(F5
I00
I00
I1
I5
ttRp129
g12
tp130
F-0.55640000000000034
s(g2
(g3
g4
(F5
I00
I00
I2
I9
ttRp131
g9
tp132
F8.2923985437651169
s(g2
(g3
g4
(F8
I00
I00
I2
I15
ttRp133
g17
tp134
F12.644570384371217
s(g2
(g3
g4
(F4
I00
I00
I3
I9
ttRp135
g17
tp136
F18.669737549694954
s(g2
(g3
g4
(F3
I00
I00
I3
I14
ttRp137
g17
tp138
F3.9881446512626733
s(g2
(g3
g4
(F8
I00
I00
I0
I7
ttRp139
g20
tp140
F-0.89446373831680015
s(g118
g17
tp141
F2.9729933997287024
s(g2
(g3
g4
(F8
I00
I00
I0
I7
ttRp142
g6
tp143
F-2.8200000000000003
s(g2
(g3
g4
(F3
I00
I00
I3
I15
ttRp144
g17
tp145
F37.533570410931958
s(g2
(g3
g4
(F6
I00
I00
I1
I13
ttRp146
g6
tp147
F25.870994843808504
s(g2
(g3
g4
(F6
I00
I00
I2
I9
ttRp148
g6
tp149
F40.733503771464079
s(g2
(g3
g4
(F2
I01
I00
I4
I13
ttRp150
g9
tp151
F-15.584248894546249
s(g2
(g3
g4
(F0
I00
I00
I3
I14
ttRp152
g20
tp153
I0
s(g2
(g3
g4
(F1
I00
I00
I2
I7
ttRp154
g9
tp155
F11.784652881882939
s(g2
(g3
g4
(F9
I00
I00
I4
I13
ttRp156
g12
tp157
I0
s(g2
(g3
g4
(F3
I00
I00
I4
I7
ttRp158
g20
tp159
F11.356053918744797
s(g2
(g3
g4
(F4
I00
I00
I3
I11
ttRp160
g12
tp161
F32.262577444091541
s(g2
(g3
g4
(F1
I01
I00
I3
I11
ttRp162
g20
tp163
F-1.2332894783897992
s(g2
(g3
g4
(F5
I00
I00
I3
I9
ttRp164
g9
tp165
F22.464016270096778
s(g2
(g3
g4
(F5
I00
I00
I3
I15
ttRp166
g12
tp167
F32.22725572650652
s(g2
(g3
g4
(F8
I00
I00
I2
I5
ttRp168
g12
tp169
F2.4859223721410064
s(g2
(g3
g4
(F9
I00
I00
I4
I5
ttRp170
g9
tp171
F-0.12929333074107885
s(g2
(g3
g4
(F6
I00
I00
I4
I5
ttRp172
g12
tp173
F-1
s(g2
(g3
g4
(F8
I00
I00
I1
I13
ttRp174
g20
tp175
F18.40260110477502
s(g2
(g3
g4
(F1
I00
I00
I3
I14
ttRp176
g6
tp177
I0
s(g2
(g3
g4
(F8
I00
I00
I1
I7
ttRp178
g6
tp179
F-5.5440000000000005
s(g2
(g3
g4
(F1
I01
I00
I4
I5
ttRp180
g17
tp181
F-9.1805221394524779
s(g2
(g3
g4
(F6
I00
I00
I0
I9
ttRp182
g12
tp183
F-2.0536492213569497
s(g162
g17
tp184
I0
s(g2
(g3
g4
(F9
I00
I00
I0
I5
ttRp185
g17
tp186
F-3.1800000000000002
s(g2
(g3
g4
(F1
I00
I00
I3
I5
ttRp187
g20
tp188
F41.321964858719475
s(g2
(g3
g4
(F4
I00
I00
I1
I13
ttRp189
g17
tp190
F10.568852200855225
s(g2
(g3
g4
(F2
I00
I00
I3
I5
ttRp191
g9
tp192
F8.0885741446511439
s(g2
(g3
g4
(F6
I00
I00
I0
I7
ttRp193
g6
tp194
F1.9452250875862487
s(g50
g17
tp195
F23.519252687257381
s(g2
(g3
g4
(F3
I00
I00
I0
I13
ttRp196
g20
tp197
F14.361263439982906
s(g2
(g3
g4
(F9
I00
I00
I4
I11
ttRp198
g12
tp199
F-1.6757431164853982
s(g46
g6
tp200
I0
s(g2
(g3
g4
(F4
I00
I00
I4
I13
ttRp201
g6
tp202
F26.716903649654817
s(g189
g20
tp203
F11.845582646196174
s(g2
(g3
g4
(F6
I00
I00
I2
I11
ttRp204
g12
tp205
F10.61373992006752
s(g2
(g3
g4
(F7
I00
I00
I2
I7
ttRp206
g17
tp207
F29.723492319670395
s(g2
(g3
g4
(F3
I00
I00
I2
I5
ttRp208
g9
tp209
F45.583381978871735
s(g156
g9
tp210
F-1.2494914789381986
s(g32
g20
tp211
F28.052558700105376
s(g2
(g3
g4
(F5
I00
I00
I1
I13
ttRp212
g9
tp213
F5.5713418692116434
s(g2
(g3
g4
(F2
I01
I00
I4
I13
ttRp214
g12
tp215
F-12.780744328198908
s(g2
(g3
g4
(F6
I00
I00
I2
I5
ttRp216
g20
tp217
F3.2863178724359474
s(g2
(g3
g4
(F8
I00
I00
I0
I11
ttRp218
g17
tp219
F-0.020000000000000018
s(g2
(g3
g4
(F5
I00
I00
I3
I7
ttRp220
g6
tp221
F-1.79205424012769
s(g2
(g3
g4
(F5
I00
I00
I4
I13
ttRp222
g12
tp223
F8.510772608670635
s(g2
(g3
g4
(F7
I00
I00
I0
I13
ttRp224
g17
tp225
F-2.9867383683863054
s(g2
(g3
g4
(F3
I00
I00
I2
I9
ttRp226
g17
tp227
F38.32469101878101
s(g2
(g3
g4
(F10
I00
I00
I4
I13
ttRp228
g9
tp229
F28.587908833597766
s(g2
(g3
g4
(F1
I00
I00
I4
I15
ttRp230
g6
tp231
F34.030170781245317
s(g2
(g3
g4
(F1
I01
I00
I4
I15
ttRp232
g9
tp233
F11.835529263170013
s(g2
(g3
g4
(F3
I01
I00
I3
I13
ttRp234
g6
tp235
F0.23351042127224916
s(g2
(g3
g4
(F6
I00
I00
I1
I13
ttRp236
g20
tp237
I0
s(g2
(g3
g4
(F2
I00
I00
I0
I15
ttRp238
g9
tp239
F36.327167061435667
s(g2
(g3
g4
(F2
I00
I00
I0
I7
ttRp240
g20
tp241
F1.9380715540076168
s(g2
(g3
g4
(F3
I00
I00
I2
I9
ttRp242
g20
tp243
F57.095938467410413
s(g2
(g3
g4
(F0
I00
I00
I4
I13
ttRp244
g17
tp245
F120.81027409506902
s(g2
(g3
g4
(F7
I00
I00
I2
I14
ttRp246
g17
tp247
I0
s(g2
(g3
g4
(F10
I00
I00
I1
I9
ttRp248
g17
tp249
F10.944678986329162
s(g2
(g3
g4
(F4
I00
I00
I4
I11
ttRp250
g17
tp251
F42.507369911440016
s(g2
(g3
g4
(F6
I00
I00
I4
I15
ttRp252
g9
tp253
F29.786789388773542
s(g2
(g3
g4
(F1
I00
I00
I0
I7
ttRp254
g9
tp255
I0
s(g150
g20
tp256
F14.362252857470416
s(g240
g17
tp257
I0
s(g2
(g3
g4
(F4
I00
I00
I0
I15
ttRp258
g17
tp259
F25.484377232162945
s(g2
(g3
g4
(F2
I00
I00
I4
I11
ttRp260
g17
tp261
F28.057336207979951
s(g2
(g3
g4
(F2
I00
I00
I1
I11
ttRp262
g12
tp263
F18.021177997850693
s(g2
(g3
g4
(F2
I00
I00
I0
I13
ttRp264
g9
tp265
F37.709858379781977
s(g2
(g3
g4
(F2
I00
I00
I4
I15
ttRp266
g12
tp267
F20.735520695804656
s(g86
g9
tp268
F5.1758488231952269
s(g2
(g3
g4
(F5
I00
I00
I3
I14
ttRp269
g9
tp270
F-0.93316699195693154
s(g2
(g3
g4
(F4
I01
I00
I4
I11
ttRp271
g9
tp272
I0
s(g2
(g3
g4
(F10
I00
I00
I2
I5
ttRp273
g6
tp274
F-1.6372796506000986
s(g216
g12
tp275
F0.69456133845779189
s(g2
(g3
g4
(F10
I00
I00
I3
I7
ttRp276
g12
tp277
F6.2466825175455636
s(g2
(g3
g4
(F8
I00
I00
I4
I5
ttRp278
g6
tp279
F-2.0497758351021962
s(g2
(g3
g4
(F1
I00
I00
I2
I15
ttRp280
g6
tp281
F31.203435873381931
s(g2
(g3
g4
(F1
I00
I00
I1
I13
ttRp282
g20
tp283
F25.977614535227563
s(g28
g20
tp284
F-0.4935761451648123
s(g2
(g3
g4
(F8
I00
I00
I2
I11
ttRp285
g12
tp286
F-2.0267478041697329
s(g182
g6
tp287
F-0.2043124787845236
s(g2
(g3
g4
(F1
I01
I00
I1
I5
ttRp288
g20
tp289
F24.503037943705664
s(g2
(g3
g4
(F5
I00
I00
I1
I11
ttRp290
g20
tp291
F25.303923376117726
s(g8
g20
tp292
F27.198488053156883
s(g2
(g3
g4
(F7
I00
I00
I2
I15
ttRp293
g12
tp294
F18.122280150253388
s(g2
(g3
g4
(F6
I00
I00
I1
I15
ttRp295
g12
tp296
F10.965394243888671
s(g2
(g3
g4
(F6
I00
I00
I0
I11
ttRp297
g9
tp298
F8.8844070786672056
s(g2
(g3
g4
(F8
I00
I00
I2
I5
ttRp299
g20
tp300
F19.434359566373189
s(g2
(g3
g4
(F0
I00
I00
I4
I7
ttRp301
g6
tp302
F20.738749877694222
s(g2
(g3
g4
(F0
I00
I00
I3
I5
ttRp303
g12
tp304
F25.143007322122291
s(g2
(g3
g4
(F7
I00
I00
I1
I11
ttRp305
g12
tp306
F-4.1755388566352751
s(g2
(g3
g4
(F10
I00
I00
I4
I9
ttRp307
g17
tp308
F10.011944920149958
s(g2
(g3
g4
(F1
I01
I00
I4
I9
ttRp309
g6
tp310
F19.666780432521328
s(g264
g6
tp311
F15.67358048562294
s(g2
(g3
g4
(F2
I00
I00
I0
I5
ttRp312
g9
tp313
F1
s(g2
(g3
g4
(F7
I00
I00
I2
I13
ttRp314
g20
tp315
F5.7713667214553235
s(g2
(g3
g4
(F1
I00
I00
I3
I7
ttRp316
g20
tp317
F5.6583748480183527
s(g2
(g3
g4
(F4
I00
I00
I0
I9
ttRp318
g6
tp319
F38.701457900262881
s(g54
g6
tp320
F3.4703069381179619
s(g2
(g3
g4
(F2
I01
I00
I1
I5
ttRp321
g9
tp322
F27.688329336606547
s(g2
(g3
g4
(F3
I01
I00
I4
I15
ttRp323
g12
tp324
F-1.3974466344311787
s(g2
(g3
g4
(F7
I00
I00
I4
I9
ttRp325
g12
tp326
F-1
s(g307
g20
tp327
F17.084501951131543
s(g156
g20
tp328
F17.025084788911666
s(g2
(g3
g4
(F1
I01
I00
I2
I7
ttRp329
g9
tp330
F34.164896726272083
s(g2
(g3
g4
(F3
I00
I00
I1
I5
ttRp331
g17
tp332
F0.56847170505316047
s(g2
(g3
g4
(F2
I00
I00
I3
I9
ttRp333
g17
tp334
F33.377869317518766
s(g2
(g3
g4
(F4
I00
I00
I0
I5
ttRp335
g20
tp336
F0.33486852338346829
s(g172
g20
tp337
F25.346221158384893
s(g152
g12
tp338
F29.877669388531224
s(g2
(g3
g4
(F10
I00
I00
I1
I5
ttRp339
g6
tp340
F4.0405465858976246
s(g333
g9
tp341
F28.137202771220082
s(g2
(g3
g4
(F3
I01
I00
I4
I9
ttRp342
g12
tp343
F-3.4377782631583842
s(g339
g20
tp344
F7.8247193270879842
s(g2
(g3
g4
(F2
I01
I00
I3
I15
ttRp345
g20
tp346
F26.812321958866562
s(g2
(g3
g4
(F3
I01
I00
I4
I13
ttRp347
g17
tp348
F-3.0822214448473866
s(g2
(g3
g4
(F3
I00
I00
I3
I11
ttRp349
g12
tp350
F33.473974280599805
s(g2
(g3
g4
(F6
I00
I00
I1
I9
ttRp351
g6
tp352
F3.173964929209756
s(g2
(g3
g4
(F6
I00
I00
I0
I15
ttRp353
g17
tp354
F18.13485825587793
s(g2
(g3
g4
(F6
I00
I00
I2
I7
ttRp355
g12
tp356
F11.176181415510634
s(g11
g17
tp357
F19.514740589737119
s(g238
g17
tp358
F32.091796851473966
s(g2
(g3
g4
(F1
I00
I00
I4
I9
ttRp359
g6
tp360
F15.215340515266371
s(g5
g20
tp361
F-2.5717465851554033
s(g2
(g3
g4
(F1
I00
I00
I3
I9
ttRp362
g6
tp363
F25.017944064881174
s(g2
(g3
g4
(F3
I00
I00
I0
I7
ttRp364
g20
tp365
I0
s(g280
g12
tp366
F52.36489439088443
s(g2
(g3
g4
(F0
I00
I00
I1
I11
ttRp367
g12
tp368
I0
s(g2
(g3
g4
(F5
I00
I00
I2
I7
ttRp369
g9
tp370
F0.33999999999999997
s(g2
(g3
g4
(F1
I01
I00
I2
I15
ttRp371
g9
tp372
I0
s(g2
(g3
g4
(F0
I00
I00
I1
I7
ttRp373
g12
tp374
F105.83222227906148
s(g2
(g3
g4
(F1
I01
I00
I3
I15
ttRp375
g12
tp376
F1.6328974795764304
s(g2
(g3
g4
(F0
I00
I00
I2
I9
ttRp377
g20
tp378
F23.670661913613518
s(g48
g12
tp379
F34.586575629359622
s(g2
(g3
g4
(F0
I00
I00
I3
I13
ttRp380
g9
tp381
F120.33218064126751
s(g54
g17
tp382
F0.59640986050212386
s(g2
(g3
g4
(F1
I00
I00
I1
I7
ttRp383
g9
tp384
I0
s(g2
(g3
g4
(F3
I00
I00
I2
I11
ttRp385
g6
tp386
F36.929278651444513
s(g114
g17
tp387
F5.8097828299609366
s(g2
(g3
g4
(F1
I00
I00
I4
I13
ttRp388
g9
tp389
F19.215787029385613
s(g62
g17
tp390
F23.58894435125767
s(g309
g12
tp391
F-8.9170606993641428
s(g2
(g3
g4
(F8
I00
I00
I1
I9
ttRp392
g20
tp393
I0
s(g74
g12
tp394
I0
s(g2
(g3
g4
(F2
I01
I00
I2
I9
ttRp395
g9
tp396
F6.0064279375967899
s(g240
g6
tp397
I0
s(g76
g12
tp398
F22.306886419399085
s(g2
(g3
g4
(F10
I00
I00
I3
I14
ttRp399
g20
tp400
I0
s(g2
(g3
g4
(F1
I01
I00
I3
I9
ttRp401
g12
tp402
F-7.4041563226297145
s(g2
(g3
g4
(F1
I00
I00
I3
I5
ttRp403
g6
tp404
F5.5698577456061429
s(g280
g20
tp405
F10.556496932741666
s(g88
g12
tp406
F13.030494754531732
s(g2
(g3
g4
(F0
I00
I00
I3
I13
ttRp407
g12
tp408
F21.719463898616404
s(g92
g17
tp409
F37.580989797282371
s(g2
(g3
g4
(F8
I00
I00
I4
I14
ttRp410
g6
tp411
I0
s(g2
(g3
g4
(F0
I00
I00
I0
I13
ttRp412
g9
tp413
I0
s(g2
(g3
g4
(F3
I01
I00
I1
I9
ttRp414
g12
tp415
F18.39252286240923
s(g2
(g3
g4
(F2
I01
I00
I4
I9
ttRp416
g17
tp417
F-11.579016367365556
s(g2
(g3
g4
(F5
I00
I00
I3
I13
ttRp418
g6
tp419
F38.105370864792008
s(g2
(g3
g4
(F2
I01
I00
I3
I9
ttRp420
g9
tp421
F25.23152404934013
s(g2
(g3
g4
(F9
I00
I00
I0
I9
ttRp422
g9
tp423
F-0.67600000000000005
s(g2
(g3
g4
(F3
I01
I00
I2
I13
ttRp424
g6
tp425
I0
s(g116
g17
tp426
I0
s(g271
g6
tp427
I0
s(g122
g17
tp428
I0
s(g40
g17
tp429
I0
s(g2
(g3
g4
(F2
I00
I00
I1
I5
ttRp430
g9
tp431
F0.95492670054399986
s(g129
g17
tp432
F-11.800000000000001
s(g2
(g3
g4
(F2
I00
I00
I4
I9
ttRp433
g12
tp434
F4.991317122113772
s(g2
(g3
g4
(F4
I00
I00
I0
I9
ttRp435
g12
tp436
F-0.81999999999999995
s(g2
(g3
g4
(F4
I00
I00
I3
I9
ttRp437
g12
tp438
F17.973422849493598
s(g2
(g3
g4
(F2
I00
I00
I2
I9
ttRp439
g17
tp440
F11.152823985723444
s(g359
g12
tp441
F9.6438751192121153
s(g137
g12
tp442
I0
s(g2
(g3
g4
(F1
I00
I00
I3
I9
ttRp443
g12
tp444
F14.120934489431839
s(g2
(g3
g4
(F9
I00
I00
I3
I9
ttRp445
g9
tp446
F13.503834308573971
s(g144
g12
tp447
F34.685870375885507
s(g288
g17
tp448
I0
s(g2
(g3
g4
(F0
I00
I00
I2
I7
ttRp449
g20
tp450
I0
s(g2
(g3
g4
(F6
I00
I00
I4
I13
ttRp451
g12
tp452
F5.3906888431285829
s(g38
g6
tp453
F116.10717924574173
s(g2
(g3
g4
(F1
I01
I00
I3
I7
ttRp454
g6
tp455
F-3.4396738912259992
s(g156
g17
tp456
I0
s(g2
(g3
g4
(F4
I00
I00
I1
I11
ttRp457
g9
tp458
F29.263610475756224
s(g424
g20
tp459
I0
s(g2
(g3
g4
(F8
I00
I00
I2
I9
ttRp460
g17
tp461
F-3.1526404028566613
s(g312
g6
tp462
I0
s(g2
(g3
g4
(F3
I00
I00
I2
I7
ttRp463
g9
tp464
F18.068064722438997
s(g166
g17
tp465
F32.669544856083029
s(g2
(g3
g4
(F7
I00
I00
I1
I13
ttRp466
g9
tp467
F2.6567513654685513
s(g422
g6
tp468
F-1.5495839999999999
s(g2
(g3
g4
(F0
I00
I00
I4
I5
ttRp469
g6
tp470
I0
s(g172
g17
tp471
I0
s(g2
(g3
g4
(F6
I00
I00
I3
I15
ttRp472
g9
tp473
F19.481163562379201
s(g2
(g3
g4
(F3
I01
I00
I4
I7
ttRp474
g9
tp475
I0
s(g2
(g3
g4
(F0
I00
I00
I4
I9
ttRp476
g20
tp477
I0
s(g2
(g3
g4
(F8
I00
I00
I1
I11
ttRp478
g9
tp479
F4.2888014908809957
s(g2
(g3
g4
(F2
I01
I00
I3
I9
ttRp480
g6
tp481
F1.3953926529251799
s(g198
g17
tp482
F-1.6014319626733473
s(g94
g17
tp483
I0
s(g2
(g3
g4
(F2
I01
I00
I3
I15
ttRp484
g9
tp485
F6.5152525005508135
s(g2
(g3
g4
(F10
I00
I00
I0
I11
ttRp486
g20
tp487
F4.9175449301481482
s(g2
(g3
g4
(F6
I00
I00
I2
I11
ttRp488
g17
tp489
F7.9294557173121341
s(g206
g12
tp490
I0
s(g2
(g3
g4
(F5
I00
I00
I1
I7
ttRp491
g12
tp492
I0
s(g383
g12
tp493
F3.0572501454503462
s(g377
g6
tp494
I0
s(g2
(g3
g4
(F1
I01
I00
I4
I11
ttRp495
g20
tp496
F2.4789612471823101
s(g74
g6
tp497
I0
s(g2
(g3
g4
(F8
I00
I00
I3
I13
ttRp498
g9
tp499
F19.952310155241769
s(g335
g9
tp500
F20.051445874807349
s(g2
(g3
g4
(F7
I00
I00
I4
I5
ttRp501
g20
tp502
F17.108439999471326
s(g244
g20
tp503
F54.94000876562631
s(g2
(g3
g4
(F10
I00
I00
I1
I9
ttRp504
g20
tp505
F23.309529777297264
s(g2
(g3
g4
(F2
I01
I00
I1
I11
ttRp506
g9
tp507
F43.746307170740309
s(g2
(g3
g4
(F5
I00
I00
I0
I13
ttRp508
g20
tp509
F8.687263677756869
s(g2
(g3
g4
(F2
I01
I00
I4
I13
ttRp510
g17
tp511
F-15.445376473612598
s(g474
g17
tp512
F-2.3328210621151526
s(g234
g9
tp513
I0
s(g2
(g3
g4
(F4
I00
I00
I2
I9
ttRp514
g20
tp515
F43.126080393304917
s(g218
g12
tp516
F-3.2199999999999998
s(g2
(g3
g4
(F2
I00
I00
I4
I13
ttRp517
g20
tp518
F24.71888491089652
s(g52
g6
tp519
F-8.4663341140347033
s(g158
g6
tp520
F12.78786165673902
s(g224
g12
tp521
F20.604062118807427
s(g2
(g3
g4
(F3
I00
I00
I2
I9
ttRp522
g12
tp523
F32.063294418175985
s(g2
(g3
g4
(F1
I00
I00
I4
I13
ttRp524
g20
tp525
F48.638944819304136
s(g36
g12
tp526
I0
s(g2
(g3
g4
(F5
I00
I00
I3
I13
ttRp527
g12
tp528
F14.568522666247423
s(g2
(g3
g4
(F1
I01
I00
I1
I7
ttRp529
g20
tp530
I0
s(g2
(g3
g4
(F9
I00
I00
I1
I11
ttRp531
g20
tp532
F0.70297832646179059
s(g2
(g3
g4
(F3
I00
I00
I3
I11
ttRp533
g20
tp534
F54.175212740690284
s(g2
(g3
g4
(F8
I00
I00
I0
I15
ttRp535
g6
tp536
F38.080432291968165
s(g299
g9
tp537
F-1
s(g2
(g3
g4
(F0
I00
I00
I3
I9
ttRp538
g20
tp539
I0
s(g2
(g3
g4
(F9
I00
I00
I1
I15
ttRp540
g6
tp541
F1.9676475246138394
s(g2
(g3
g4
(F2
I00
I00
I1
I9
ttRp542
g12
tp543
F18.758590954555583
s(g2
(g3
g4
(F2
I01
I00
I2
I15
ttRp544
g20
tp545
F41.332215310550531
s(g2
(g3
g4
(F7
I00
I00
I0
I5
ttRp546
g6
tp547
I0
s(g2
(g3
g4
(F5
I00
I00
I2
I7
ttRp548
g20
tp549
F1.4220270882983181
s(g2
(g3
g4
(F0
I00
I00
I3
I11
ttRp550
g9
tp551
F44.529462075898252
s(g246
g12
tp552
F3.8944062656878247
s(g248
g12
tp553
F14.034903109113818
s(g2
(g3
g4
(F2
I00
I00
I1
I15
ttRp554
g9
tp555
F37.381511664469159
s(g137
g6
tp556
I0
s(g321
g12
tp557
I0
s(g2
(g3
g4
(F1
I00
I00
I2
I11
ttRp558
g17
tp559
F15.232302196102694
s(g258
g12
tp560
F24.551201070676974
s(g118
g6
tp561
I0
s(g212
g6
tp562
F14.920593713214217
s(g2
(g3
g4
(F1
I00
I00
I4
I7
ttRp563
g20
tp564
F4.4648868476878274
s(g262
g17
tp565
F27.153612700294122
s(g2
(g3
g4
(F4
I00
I00
I4
I7
ttRp566
g6
tp567
F6.9414576815695481
s(g2
(g3
g4
(F7
I00
I00
I0
I9
ttRp568
g20
tp569
F14.422284374642642
s(g2
(g3
g4
(F3
I00
I00
I2
I7
ttRp570
g20
tp571
F3.2092365142380315
s(g2
(g3
g4
(F2
I00
I00
I3
I7
ttRp572
g12
tp573
F14.034459892925483
s(g2
(g3
g4
(F10
I00
I00
I2
I11
ttRp574
g12
tp575
F12.527867812055341
s(g2
(g3
g4
(F0
I00
I00
I4
I15
ttRp576
g9
tp577
F132.61840548967328
s(g2
(g3
g4
(F3
I00
I00
I4
I11
ttRp578
g9
tp579
F27.145201642166302
s(g2
(g3
g4
(F4
I00
I00
I0
I11
ttRp580
g20
tp581
F3.1333606189490504
s(g2
(g3
g4
(F0
I00
I00
I1
I15
ttRp582
g20
tp583
I0
s(g2
(g3
g4
(F6
I00
I00
I3
I13
ttRp584
g17
tp585
F0.34816407620785572
s(g309
g20
tp586
F-8.2048833929566509
s(g2
(g3
g4
(F4
I01
I00
I4
I7
ttRp587
g6
tp588
F-3.7254599698013324
s(g106
g17
tp589
I0
s(g216
g17
tp590
F-4.5564176269085577
s(g2
(g3
g4
(F2
I00
I00
I2
I5
ttRp591
g12
tp592
F9.0648459211226164
s(g276
g17
tp593
F28.627383968242253
s(g2
(g3
g4
(F1
I01
I00
I4
I13
ttRp594
g17
tp595
F-11.937537822444886
s(g2
(g3
g4
(F3
I00
I00
I2
I13
ttRp596
g9
tp597
F39.412223556317045
s(g162
g6
tp598
F26.97252288803681
s(g305
g20
tp599
F31.796171492931578
s(g2
(g3
g4
(F5
I00
I00
I4
I11
ttRp600
g6
tp601
F6.7930126039511851
s(g373
g17
tp602
I0
s(g2
(g3
g4
(F4
I00
I00
I0
I13
ttRp603
g17
tp604
F-3.5277370307454223
s(g2
(g3
g4
(F9
I00
I00
I0
I13
ttRp605
g20
tp606
F0.93618051211479458
s(g2
(g3
g4
(F5
I00
I00
I1
I11
ttRp607
g12
tp608
F7.6629833097639874
s(g2
(g3
g4
(F8
I00
I00
I1
I5
ttRp609
g20
tp610
F-0.82089299587024878
s(g28
g6
tp611
F-2.4821909264434039
s(g38
g9
tp612
F27.59889890190766
s(g303
g17
tp613
F19.409797220408763
s(g2
(g3
g4
(F8
I00
I00
I2
I14
ttRp614
g9
tp615
I0
s(g305
g17
tp616
F4.4350313535739927
s(g2
(g3
g4
(F1
I00
I00
I4
I5
ttRp617
g20
tp618
F13.633269519239711
s(g2
(g3
g4
(F7
I00
I00
I2
I13
ttRp619
g9
tp620
F30.993747832505282
s(g307
g12
tp621
I0
s(g2
(g3
g4
(F9
I00
I00
I4
I15
ttRp622
g6
tp623
F3.5689136687178786
s(g2
(g3
g4
(F7
I00
I00
I1
I15
ttRp624
g17
tp625
F8.0372783992748769
s(g50
g6
tp626
F116.8168534287974
s(g158
g12
tp627
F27.753077964441466
s(g164
g6
tp628
F8.4551951622359223
s(g2
(g3
g4
(F9
I00
I00
I2
I9
ttRp629
g12
tp630
I0
s(g2
(g3
g4
(F1
I00
I00
I4
I15
ttRp631
g17
tp632
F12.773987091118247
s(g2
(g3
g4
(F8
I00
I00
I4
I7
ttRp633
g6
tp634
F-1.8054970926759562
s(g578
g12
tp635
F25.48511668582865
s(g216
g9
tp636
F34.636690479533634
s(g323
g17
tp637
F15.34034166489602
s(g2
(g3
g4
(F1
I01
I00
I1
I11
ttRp638
g17
tp639
I0
s(g325
g17
tp640
F0.19417364999472897
s(g2
(g3
g4
(F5
I00
I00
I1
I13
ttRp641
g20
tp642
F32.418578412053051
s(g2
(g3
g4
(F7
I00
I00
I4
I13
ttRp643
g17
tp644
F-1
s(g2
(g3
g4
(F3
I00
I00
I1
I5
ttRp645
g12
tp646
F1.3240000000000001
s(g359
g20
tp647
F55.266280651706808
s(g2
(g3
g4
(F3
I00
I00
I4
I13
ttRp648
g9
tp649
F29.963879684444883
s(g246
g6
tp650
I0
s(g2
(g3
g4
(F8
I00
I00
I3
I7
ttRp651
g9
tp652
F18.47491656670589
s(g2
(g3
g4
(F2
I01
I00
I3
I7
ttRp653
g9
tp654
F-6.0606370765182271
s(g2
(g3
g4
(F5
I00
I00
I1
I15
ttRp655
g9
tp656
F28.994784602857415
s(g2
(g3
g4
(F3
I01
I00
I4
I9
ttRp657
g17
tp658
F-6.5116610748588917
s(g2
(g3
g4
(F3
I00
I00
I3
I7
ttRp659
g20
tp660
F46.140410206287243
s(g2
(g3
g4
(F6
I00
I00
I1
I5
ttRp661
g9
tp662
I0
s(g2
(g3
g4
(F0
I00
I00
I0
I9
ttRp663
g17
tp664
F104.09991232782383
s(g347
g12
tp665
I0
s(g2
(g3
g4
(F2
I00
I00
I1
I7
ttRp666
g6
tp667
F4.9164709030985865
s(g104
g6
tp668
F-3.0030698298302587
s(g533
g17
tp669
F38.865421212570354
s(g2
(g3
g4
(F0
I00
I00
I2
I6
ttRp670
g20
tp671
I0
s(g2
(g3
g4
(F8
I00
I00
I3
I5
ttRp672
g20
tp673
F12.54036410901416
s(g220
g20
tp674
F40.417150994050296
s(g353
g12
tp675
F18.459653409243796
s(g2
(g3
g4
(F1
I00
I00
I3
I10
ttRp676
g17
tp677
I0
s(g238
g12
tp678
F39.002877762185719
s(g517
g6
tp679
F20.535373980636546
s(g2
(g3
g4
(F8
I00
I00
I4
I11
ttRp680
g6
tp681
F-0.20000000000000018
s(g2
(g3
g4
(F6
I00
I00
I3
I11
ttRp682
g12
tp683
F9.1661996811011477
s(g321
g6
tp684
F-4.6000000000000005
s(g2
(g3
g4
(F5
I00
I00
I2
I11
ttRp685
g12
tp686
F19.792250357951215
s(g2
(g3
g4
(F10
I00
I00
I3
I5
ttRp687
g12
tp688
F14.977239750055279
s(g2
(g3
g4
(F9
I00
I00
I2
I14
ttRp689
g20
tp690
I0
s(g280
g17
tp691
F18.566002119238764
s(g367
g17
tp692
I0
s(g2
(g3
g4
(F3
I00
I00
I1
I5
ttRp693
g9
tp694
F40.525330200490238
s(g529
g17
tp695
F7.6051175103513309
s(g244
g6
tp696
I0
s(g2
(g3
g4
(F6
I00
I00
I4
I9
ttRp697
g12
tp698
I0
s(g2
(g3
g4
(F3
I00
I00
I3
I13
ttRp699
g20
tp700
F29.515548740469693
s(g2
(g3
g4
(F2
I01
I00
I3
I5
ttRp701
g17
tp702
F-4.0511575887026909
s(g212
g12
tp703
F10.378187686742381
s(g2
(g3
g4
(F8
I00
I00
I2
I13
ttRp704
g9
tp705
F6.0654859306960223
s(g2
(g3
g4
(F3
I00
I00
I4
I9
ttRp706
g20
tp707
F65.501386322959192
s(g2
(g3
g4
(F9
I00
I00
I0
I15
ttRp708
g12
tp709
F14.51681959517312
s(g114
g12
tp710
F22.668580789137057
s(g307
g6
tp711
F13.255314504847018
s(g309
g17
tp712
F-11.073393867206349
s(g2
(g3
g4
(F7
I00
I00
I4
I11
ttRp713
g20
tp714
F6.4794822268892522
s(g2
(g3
g4
(F6
I00
I00
I1
I9
ttRp715
g9
tp716
F6.065006475987885
s(g76
g17
tp717
F5.4464369781586317
s(g2
(g3
g4
(F8
I00
I00
I0
I9
ttRp718
g20
tp719
F-0.43629629644621515
s(g2
(g3
g4
(F6
I00
I00
I3
I9
ttRp720
g6
tp721
F-0.74865321130946927
s(g407
g17
tp722
F73.110047701783827
s(g2
(g3
g4
(F3
I00
I00
I1
I5
ttRp723
g6
tp724
F-1.3995199999999997
s(g416
g12
tp725
F-12.801491178308348
s(g2
(g3
g4
(F1
I01
I00
I4
I11
ttRp726
g12
tp727
F-9.5138211539618815
s(g182
g20
tp728
F23.742956928277394
s(g2
(g3
g4
(F10
I00
I00
I4
I10
ttRp729
g12
tp730
I0
s(g142
g9
tp731
F11.213713601182194
s(g2
(g3
g4
(F4
I00
I00
I1
I7
ttRp732
g20
tp733
F10.04640857729987
s(g2
(g3
g4
(F0
I00
I00
I4
I15
ttRp734
g12
tp735
F61.45246775877969
s(g2
(g3
g4
(F0
I00
I00
I3
I15
ttRp736
g17
tp737
F112.27646360646978
s(g2
(g3
g4
(F8
I00
I00
I4
I9
ttRp738
g6
tp739
F-1
s(g587
g9
tp740
I0
s(g166
g20
tp741
F32.338751057957239
s(g264
g17
tp742
F7.1334076709355339
s(g2
(g3
g4
(F1
I00
I00
I2
I5
ttRp743
g6
tp744
F1.5188132105366456
s(g2
(g3
g4
(F2
I00
I00
I1
I13
ttRp745
g20
tp746
F22.726862889469427
s(g715
g17
tp747
F-1.3066626964260091
s(g2
(g3
g4
(F2
I00
I00
I4
I9
ttRp748
g17
tp749
F4.1580850419875741
s(g2
(g3
g4
(F5
I00
I00
I3
I15
ttRp750
g9
tp751
F38.469111042897083
s(g2
(g3
g4
(F4
I00
I00
I3
I15
ttRp752
g6
tp753
F31.306702995601775
s(g353
g6
tp754
F20.120227505564152
s(g701
g6
tp755
F-12.774377145866024
s(g439
g12
tp756
F7.1226835766764154
s(g359
g17
tp757
F6.8492679473667657
s(g568
g9
tp758
F-1.1669589881393336
s(g2
(g3
g4
(F1
I01
I00
I3
I5
ttRp759
g17
tp760
F-5.8000000000000007
s(g2
(g3
g4
(F1
I00
I00
I3
I9
ttRp761
g17
tp762
F13.401443219834375
s(g2
(g3
g4
(F2
I01
I00
I1
I7
ttRp763
g9
tp764
F35.179655314494994
s(g401
g17
tp765
F17.587550442707396
s(g566
g20
tp766
F14.515542186298113
s(g2
(g3
g4
(F9
I00
I00
I3
I5
ttRp767
g20
tp768
F-1
s(g2
(g3
g4
(F1
I01
I00
I1
I13
ttRp769
g12
tp770
I0
s(g2
(g3
g4
(F3
I00
I00
I1
I13
ttRp771
g20
tp772
F15.929604564659432
s(g2
(g3
g4
(F1
I01
I00
I2
I5
ttRp773
g12
tp774
F-0.36633914786747185
s(g2
(g3
g4
(F3
I01
I00
I3
I15
ttRp775
g6
tp776
I0
s(g2
(g3
g4
(F7
I00
I00
I2
I9
ttRp777
g9
tp778
F32.858857248197516
s(g603
g20
tp779
F25.043781608663561
s(g269
g20
tp780
I0
s(g663
g20
tp781
I0
s(g2
(g3
g4
(F5
I00
I00
I3
I13
ttRp782
g9
tp783
F17.127391269269815
s(g460
g12
tp784
F-1.8
s(g2
(g3
g4
(F8
I00
I00
I1
I15
ttRp785
g6
tp786
F1.571377234787249
s(g2
(g3
g4
(F6
I00
I00
I2
I15
ttRp787
g20
tp788
F26.369931051243746
s(g2
(g3
g4
(F9
I00
I00
I2
I11
ttRp789
g6
tp790
F-1.54
s(g129
g9
tp791
F31.04825780964687
s(g218
g9
tp792
F9.7199315970834306
s(g40
g9
tp793
F-1
s(g2
(g3
g4
(F2
I00
I00
I0
I9
ttRp794
g20
tp795
F49.155238748159988
s(g238
g6
tp796
F36.127479456099834
s(g24
g9
tp797
F29.01505113828086
s(g2
(g3
g4
(F6
I00
I00
I3
I9
ttRp798
g12
tp799
F-2.8025459897453464
s(g403
g17
tp800
F6.3553927989245329
s(g2
(g3
g4
(F1
I00
I00
I1
I9
ttRp801
g12
tp802
F24.955247357633176
s(g254
g6
tp803
I0
s(g491
g9
tp804
F35.531669687243991
s(g94
g12
tp805
I0
s(g2
(g3
g4
(F7
I00
I00
I1
I7
ttRp806
g9
tp807
F19.639721316302492
s(g2
(g3
g4
(F9
I00
I00
I3
I13
ttRp808
g12
tp809
F14.364513385524015
s(g2
(g3
g4
(F2
I01
I00
I3
I11
ttRp810
g9
tp811
F-0.0070906579022089744
s(g126
g20
tp812
I0
s(g2
(g3
g4
(F9
I00
I00
I1
I5
ttRp813
g12
tp814
F-0.49495090420896193
s(g2
(g3
g4
(F7
I00
I00
I2
I5
ttRp815
g6
tp816
F-1.8359999999999999
s(g491
g17
tp817
F0.79506920898186006
s(g517
g9
tp818
F20.511253363184753
s(g62
g6
tp819
F26.887461683335317
s(g2
(g3
g4
(F4
I00
I00
I0
I7
ttRp820
g17
tp821
F25.687745974100309
s(g631
g9
tp822
F13.409148773601663
s(g40
g6
tp823
F25.857052696164825
s(g2
(g3
g4
(F4
I00
I00
I1
I15
ttRp824
g12
tp825
F28.860660384531126
s(g2
(g3
g4
(F3
I00
I00
I4
I15
ttRp826
g12
tp827
F33.613338509243256
s(g2
(g3
g4
(F2
I01
I00
I3
I13
ttRp828
g20
tp829
F21.211696101802332
s(g531
g9
tp830
F0.81865109387401591
s(g2
(g3
g4
(F4
I00
I00
I4
I15
ttRp831
g20
tp832
F27.408626207986735
s(g2
(g3
g4
(F7
I00
I00
I0
I7
ttRp833
g6
tp834
F-3.5751867559675485
s(g176
g20
tp835
I0
s(g2
(g3
g4
(F2
I00
I00
I2
I11
ttRp836
g20
tp837
F60.593202627463846
s(g54
g9
tp838
F9.1631444570300413
s(g474
g12
tp839
I0
s(g410
g17
tp840
F1
s(g2
(g3
g4
(F10
I00
I00
I0
I7
ttRp841
g20
tp842
F9.3074755022713536
s(g672
g9
tp843
F-0.74958400000000003
s(g2
(g3
g4
(F3
I01
I00
I2
I9
ttRp844
g6
tp845
I0
s(g126
g9
tp846
I0
s(g782
g17
tp847
F10.871728100660345
s(g672
g6
tp848
F-0.42673267660220698
s(g345
g6
tp849
F0.22967261466252675
s(g407
g20
tp850
F25.944383170925303
s(g2
(g3
g4
(F10
I00
I00
I4
I15
ttRp851
g12
tp852
F20.515395086180071
s(g2
(g3
g4
(F10
I00
I00
I1
I7
ttRp853
g9
tp854
F14.168560004937998
s(g191
g20
tp855
F21.869695368792087
s(g743
g12
tp856
F51.743115721079612
s(g172
g6
tp857
F-1
s(g2
(g3
g4
(F6
I00
I00
I3
I7
ttRp858
g17
tp859
F8.6590530194871924
s(g335
g6
tp860
I0
s(g2
(g3
g4
(F10
I00
I00
I1
I13
ttRp861
g12
tp862
F21.86864726745959
s(g152
g6
tp863
I0
s(g2
(g3
g4
(F2
I00
I00
I2
I13
ttRp864
g20
tp865
F54.685636436860193
s(g2
(g3
g4
(F1
I00
I00
I2
I11
ttRp866
g12
tp867
F27.272853836593118
s(g2
(g3
g4
(F9
I00
I00
I4
I9
ttRp868
g20
tp869
I0
s(g771
g6
tp870
F20.178413180867466
s(g2
(g3
g4
(F0
I00
I00
I0
I5
ttRp871
g6
tp872
I0
s(g2
(g3
g4
(F1
I00
I00
I2
I13
ttRp873
g6
tp874
F31.682117044449573
s(g98
g17
tp875
F15.201397360029363
s(g2
(g3
g4
(F2
I00
I00
I3
I7
ttRp876
g17
tp877
F20.072072243243611
s(g318
g20
tp878
F4.0608707873857943
s(g574
g17
tp879
F20.952794152554866
s(g2
(g3
g4
(F2
I01
I00
I3
I9
ttRp880
g12
tp881
F-7.2395796691162149
s(g584
g12
tp882
F11.616933609526891
s(g743
g9
tp883
F7.9338443089802331
s(g2
(g3
g4
(F10
I00
I00
I4
I7
ttRp884
g20
tp885
F12.912011684703607
s(g474
g20
tp886
F3.7316131097169745
s(g591
g17
tp887
F0.83894239072677368
s(g2
(g3
g4
(F5
I00
I00
I3
I15
ttRp888
g6
tp889
F40.267101362255652
s(g325
g20
tp890
F12.039648241263086
s(g594
g12
tp891
F17.541452362643646
s(g2
(g3
g4
(F3
I00
I00
I1
I11
ttRp892
g9
tp893
F30.329675963769034
s(g2
(g3
g4
(F0
I00
I00
I1
I9
ttRp894
g12
tp895
I0
s(g26
g12
tp896
F-1
s(g580
g9
tp897
F24.347742825638512
s(g445
g20
tp898
F0.036146057757695083
s(g2
(g3
g4
(F3
I00
I00
I0
I15
ttRp899
g6
tp900
F28.499748817357819
s(g2
(g3
g4
(F2
I01
I00
I1
I15
ttRp901
g9
tp902
F17.825293601792676
s(g2
(g3
g4
(F6
I00
I00
I4
I11
ttRp903
g20
tp904
F6.6044657322397633
s(g2
(g3
g4
(F3
I00
I00
I4
I5
ttRp905
g12
tp906
F9.9050028111765869
s(g2
(g3
g4
(F7
I00
I00
I1
I9
ttRp907
g6
tp908
F26.570297148471813
s(g2
(g3
g4
(F5
I00
I00
I1
I11
ttRp909
g17
tp910
F43.507274541025978
s(g126
g12
tp911
I0
s(g282
g6
tp912
F23.84509330511646
s(g775
g9
tp913
I0
s(g234
g17
tp914
I0
s(g2
(g3
g4
(F1
I00
I00
I3
I11
ttRp915
g6
tp916
F13.758452187183071
s(g185
g12
tp917
F-1.4840000000000002
s(g2
(g3
g4
(F1
I00
I00
I3
I13
ttRp918
g9
tp919
F52.581401316919624
s(g2
(g3
g4
(F7
I00
I00
I1
I15
ttRp920
g12
tp921
F7.0144826563783003
s(g2
(g3
g4
(F2
I00
I00
I3
I11
ttRp922
g17
tp923
F30.390685576652778
s(g158
g17
tp924
F40.359560335020433
s(g2
(g3
g4
(F1
I00
I00
I0
I13
ttRp925
g6
tp926
F35.728268561445127
s(g2
(g3
g4
(F9
I00
I00
I2
I9
ttRp927
g17
tp928
F-3
s(g2
(g3
g4
(F3
I00
I00
I2
I11
ttRp929
g9
tp930
F39.42374616113959
s(g631
g12
tp931
F14.021253624018417
s(g2
(g3
g4
(F9
I00
I00
I2
I13
ttRp932
g12
tp933
F21.189181908184739
s(g578
g17
tp934
F33.962313512397373
s(g638
g12
tp935
F12.501937769026856
s(g371
g12
tp936
I0
s(g2
(g3
g4
(F5
I00
I00
I2
I15
ttRp937
g20
tp938
F31.92086976599473
s(g643
g12
tp939
I0
s(g2
(g3
g4
(F3
I01
I00
I2
I7
ttRp940
g9
tp941
I0
s(g416
g20
tp942
F-7.3208955361225367
s(g617
g9
tp943
F32.191121760502803
s(g170
g6
tp944
F-3.8000000000000003
s(g2
(g3
g4
(F0
I00
I00
I1
I9
ttRp945
g9
tp946
F134.267901621611
s(g2
(g3
g4
(F9
I00
I00
I1
I7
ttRp947
g6
tp948
F-3
s(g826
g6
tp949
F32.564129766777874
s(g2
(g3
g4
(F10
I00
I00
I1
I11
ttRp950
g6
tp951
F1.5157158400000001
s(g2
(g3
g4
(F2
I01
I00
I1
I11
ttRp952
g20
tp953
I0
s(g663
g12
tp954
I0
s(g584
g9
tp955
I0
s(g244
g9
tp956
F23.224778457466574
s(g288
g12
tp957
I0
s(g2
(g3
g4
(F1
I01
I00
I2
I13
ttRp958
g12
tp959
F10.330730728317761
s(g2
(g3
g4
(F0
I00
I00
I2
I5
ttRp960
g20
tp961
F133.40432922385469
s(g2
(g3
g4
(F2
I01
I00
I4
I7
ttRp962
g17
tp963
F-6.0970933223919905
s(g676
g12
tp964
I0
s(g377
g9
tp965
F44.499638947949812
s(g318
g17
tp966
F4.106815105333129
s(g563
g9
tp967
I0
s(g2
(g3
g4
(F5
I00
I00
I4
I7
ttRp968
g20
tp969
F10.71040177898287
s(g2
(g3
g4
(F6
I00
I00
I3
I11
ttRp970
g17
tp971
F5.1573127540164858
s(g216
g6
tp972
F-1
s(g685
g17
tp973
F48.151734218285966
s(g2
(g3
g4
(F0
I00
I00
I0
I15
ttRp974
g17
tp975
F98.627390097498747
s(g2
(g3
g4
(F2
I00
I00
I3
I15
ttRp976
g20
tp977
F43.135552729139199
s(g26
g6
tp978
I0
s(g460
g20
tp979
F26.901322050562719
s(g554
g17
tp980
F33.119097699938834
s(g659
g6
tp981
F13.678987617363463
s(g947
g20
tp982
F-1.1273695325388928
s(g529
g12
tp983
I0
s(g777
g17
tp984
I0
s(g2
(g3
g4
(F10
I00
I00
I0
I15
ttRp985
g9
tp986
F28.13098928977994
s(g2
(g3
g4
(F3
I00
I00
I4
I13
ttRp987
g6
tp988
F27.088699523383021
s(g538
g9
tp989
I0
s(g126
g6
tp990
F12.880031155081872
s(g701
g12
tp991
F-7.2932269778509973
s(g769
g9
tp992
F46.908802034034871
s(g212
g17
tp993
F0.83827551618927076
s(g853
g12
tp994
F11.912872690222171
s(g312
g12
tp995
F28.473701192925137
s(g2
(g3
g4
(F3
I01
I00
I3
I7
ttRp996
g20
tp997
I0
s(g2
(g3
g4
(F1
I00
I00
I1
I13
ttRp998
g12
tp999
F55.32818288016648
s(g262
g6
tp1000
F36.912540284203104
s(g2
(g3
g4
(F9
I00
I00
I0
I15
ttRp1001
g17
tp1002
F14.760540476753965
s(g2
(g3
g4
(F0
I00
I00
I4
I11
ttRp1003
g20
tp1004
F23.559936162671448
s(g550
g20
tp1005
F21.656462852991108
s(g2
(g3
g4
(F1
I00
I00
I2
I7
ttRp1006
g6
tp1007
F13.001768008021044
s(g2
(g3
g4
(F5
I00
I00
I4
I15
ttRp1008
g6
tp1009
F28.183530444321441
s(g2
(g3
g4
(F8
I00
I00
I4
I7
ttRp1010
g20
tp1011
F0.33887083837600751
s(g2
(g3
g4
(F4
I00
I00
I1
I9
ttRp1012
g20
tp1013
F13.606106859135734
s(g2
(g3
g4
(F5
I00
I00
I0
I5
ttRp1014
g6
tp1015
I0
s(g2
(g3
g4
(F3
I01
I00
I2
I11
ttRp1016
g6
tp1017
I0
s(g508
g6
tp1018
F19.665386518631561
s(g544
g12
tp1019
F9.8975062536809393
s(g466
g6
tp1020
F-0.81999999999999995
s(g424
g9
tp1021
I0
s(g2
(g3
g4
(F3
I00
I00
I0
I11
ttRp1022
g20
tp1023
F4.9979082054674109
s(g2
(g3
g4
(F0
I00
I00
I2
I10
ttRp1024
g12
tp1025
I0
s(g2
(g3
g4
(F0
I00
I00
I4
I7
ttRp1026
g20
tp1027
F5.4000000000000004
s(g826
g9
tp1028
F37.066275957441896
s(g676
g20
tp1029
F4.780038697490764
s(g2
(g3
g4
(F2
I00
I00
I3
I13
ttRp1030
g6
tp1031
F19.749693866792455
s(g2
(g3
g4
(F1
I01
I00
I4
I7
ttRp1032
g12
tp1033
F-2.6992779487709093
s(g903
g6
tp1034
F39.904331575158352
s(g2
(g3
g4
(F1
I00
I00
I0
I5
ttRp1035
g12
tp1036
I0
s(g729
g17
tp1037
I0
s(g445
g6
tp1038
F-0.20000000000000018
s(g2
(g3
g4
(F1
I00
I00
I3
I11
ttRp1039
g12
tp1040
F25.202742616730443
s(g305
g6
tp1041
F-1
s(g734
g17
tp1042
F26.236866979054341
s(g2
(g3
g4
(F3
I01
I00
I3
I5
ttRp1043
g6
tp1044
I0
s(g185
g6
tp1045
F-3.8000000000000003
s(g264
g12
tp1046
F6.5090399397242846
s(g2
(g3
g4
(F2
I01
I00
I1
I9
ttRp1047
g17
tp1048
I0
s(g715
g12
tp1049
F-2.7377155529575878
s(g2
(g3
g4
(F7
I00
I00
I3
I11
ttRp1050
g17
tp1051
F35.381689902048677
s(g1024
g20
tp1052
I0
s(g2
(g3
g4
(F3
I00
I00
I1
I15
ttRp1053
g6
tp1054
F31.046423878920699
s(g759
g12
tp1055
F-2.8768931257765225
s(g355
g9
tp1056
F13.612615199167065
s(g1001
g9
tp1057
F19.47027702645013
s(g218
g6
tp1058
F2.2823674443787705
s(g2
(g3
g4
(F5
I00
I00
I2
I5
ttRp1059
g20
tp1060
F43.250247374676817
s(g2
(g3
g4
(F1
I01
I00
I1
I13
ttRp1061
g17
tp1062
F3.6961629954790278
s(g996
g9
tp1063
F4.2040843903969849
s(g773
g17
tp1064
F-2.4187879371452934
s(g472
g20
tp1065
F34.749993684139682
s(g297
g12
tp1066
F-0.46501263999999998
s(g2
(g3
g4
(F2
I00
I00
I2
I7
ttRp1067
g12
tp1068
F10.450379430228272
s(g373
g6
tp1069
F4.6669456278084382
s(g2
(g3
g4
(F5
I00
I00
I0
I11
ttRp1070
g12
tp1071
F-1.5473668824303584
s(g2
(g3
g4
(F0
I00
I00
I3
I6
ttRp1072
g9
tp1073
I0
s(g133
g9
tp1074
F5.9621162197336357
s(g970
g9
tp1075
F13.063710222414674
s(g968
g9
tp1076
F4.6491091822712285
s(g533
g6
tp1077
F37.623300242827291
s(g2
(g3
g4
(F4
I00
I00
I4
I5
ttRp1078
g9
tp1079
F44.967271641678209
s(g1016
g12
tp1080
I0
s(g798
g17
tp1081
F-7.1365584727840501
s(g736
g20
tp1082
F24.20551834398276
s(g2
(g3
g4
(F7
I00
I00
I2
I11
ttRp1083
g6
tp1084
F15.671989242817158
s(g180
g6
tp1085
F-10.624732241015156
s(g403
g12
tp1086
F11.793575603511036
s(g367
g6
tp1087
I0
s(g801
g17
tp1088
F17.24366405975762
s(g962
g20
tp1089
F10.431607351107674
s(g2
(g3
g4
(F10
I00
I00
I3
I15
ttRp1090
g9
tp1091
F29.849390297191739
s(g2
(g3
g4
(F2
I00
I00
I2
I11
ttRp1092
g6
tp1093
F38.129593153599771
s(g2
(g3
g4
(F3
I00
I00
I4
I13
ttRp1094
g12
tp1095
F28.305087090818247
s(g2
(g3
g4
(F2
I01
I00
I3
I13
ttRp1096
g6
tp1097
F-8.91949085549839
s(g2
(g3
g4
(F8
I00
I00
I0
I5
ttRp1098
g9
tp1099
F-1.6976709392478766
s(g587
g12
tp1100
I0
s(g808
g17
tp1101
F-5.091142027468754
s(g903
g12
tp1102
F2.2068141962137959
s(g813
g17
tp1103
F-3
s(g449
g6
tp1104
I0
s(g820
g12
tp1105
I0
s(g905
g6
tp1106
F-1.2822196784725355
s(g2
(g3
g4
(F0
I00
I00
I2
I11
ttRp1107
g20
tp1108
F59.932374253597018
s(g174
g12
tp1109
F0.14371200000000006
s(g201
g20
tp1110
F48.78470211624132
s(g824
g17
tp1111
F28.821987013215409
s(g826
g17
tp1112
F32.84281215531221
s(g2
(g3
g4
(F7
I00
I00
I1
I5
ttRp1113
g20
tp1114
F-1
s(g858
g20
tp1115
F1.2017278768969351
s(g72
g6
tp1116
F-0.81999999999999995
s(g36
g6
tp1117
F21.658718315325114
s(g2
(g3
g4
(F3
I00
I00
I2
I13
ttRp1118
g6
tp1119
F44.472729059517995
s(g80
g6
tp1120
F36.187825254011692
s(g301
g17
tp1121
F20.8628976
s(g759
g6
tp1122
F-3.6652662908452238
s(g182
g9
tp1123
F-0.20000000000000018
s(g172
g9
tp1124
F2.3062320000000001
s(g410
g12
tp1125
I0
s(g2
(g3
g4
(F0
I00
I00
I4
I9
ttRp1126
g6
tp1127
F133.69093870576478
s(g164
g12
tp1128
F14.927185280778891
s(g2
(g3
g4
(F2
I01
I00
I4
I5
ttRp1129
g20
tp1130
F9.3458401997367329
s(g2
(g3
g4
(F2
I00
I00
I2
I11
ttRp1131
g9
tp1132
F33.943265517119805
s(g2
(g3
g4
(F1
I00
I00
I4
I13
ttRp1133
g17
tp1134
F9.2981222758044098
s(g806
g6
tp1135
F-1.805288675328
s(g871
g17
tp1136
I0
s(g2
(g3
g4
(F10
I00
I00
I4
I15
ttRp1137
g17
tp1138
F34.881457457389025
s(g86
g20
tp1139
F1.5244256559331106
s(g469
g20
tp1140
I0
s(g868
g6
tp1141
I0
s(g718
g9
tp1142
F-0.26823886223118332
s(g312
g20
tp1143
I0
s(g743
g17
tp1144
F-0.29983386317094418
s(g858
g12
tp1145
F-1
s(g548
g17
tp1146
F43.72752658007429
s(g2
(g3
g4
(F4
I00
I00
I3
I7
ttRp1147
g12
tp1148
F46.934685766392072
s(g861
g17
tp1149
F8.2084056979719922
s(g2
(g3
g4
(F8
I00
I00
I3
I9
ttRp1150
g12
tp1151
F-6.04
s(g2
(g3
g4
(F3
I00
I00
I1
I15
ttRp1152
g12
tp1153
F38.688910116557388
s(g98
g12
tp1154
I0
s(g347
g6
tp1155
F-1.2938621596588327
s(g375
g20
tp1156
F3.7424563523425896
s(g2
(g3
g4
(F2
I00
I00
I1
I5
ttRp1157
g20
tp1158
F8.2499462938733874
s(g2
(g3
g4
(F1
I01
I00
I4
I6
ttRp1159
g6
tp1160
I0
s(g2
(g3
g4
(F7
I00
I00
I1
I9
ttRp1161
g9
tp1162
F-1
s(g254
g17
tp1163
I0
s(g880
g17
tp1164
F-5.666031707840725
s(g478
g17
tp1165
F25.149657641192373
s(g2
(g3
g4
(F3
I00
I00
I1
I7
ttRp1166
g6
tp1167
F4.2283267350026987
s(g333
g20
tp1168
F51.537786884686227
s(g414
g9
tp1169
I0
s(g542
g9
tp1170
F12.599553007978496
s(g2
(g3
g4
(F0
I00
I00
I2
I13
ttRp1171
g17
tp1172
F42.919196561458648
s(g894
g17
tp1173
I0
s(g701
g20
tp1174
F20.867335920264139
s(g651
g12
tp1175
F-1.98
s(g820
g6
tp1176
F-2.2616370944232385
s(g782
g20
tp1177
F14.30294250611345
s(g36
g9
tp1178
F-1
s(g833
g17
tp1179
F11.505999412112995
s(g80
g12
tp1180
F23.596738555225031
s(g234
g12
tp1181
I0
s(g303
g20
tp1182
I0
s(g718
g17
tp1183
F-3
s(g66
g12
tp1184
F23.986311864791126
s(g2
(g3
g4
(F1
I00
I00
I0
I11
ttRp1185
g20
tp1186
I0
s(g937
g9
tp1187
F27.10666871329278
s(g932
g17
tp1188
F-6.04
s(g2
(g3
g4
(F7
I00
I00
I1
I5
ttRp1189
g9
tp1190
F-0.38000000000000012
s(g201
g9
tp1191
F30.39158477335927
s(g371
g17
tp1192
F3.1456407868212035
s(g542
g6
tp1193
F11.797852866431173
s(g985
g12
tp1194
F30.896176647763063
s(g162
g9
tp1195
I0
s(g759
g9
tp1196
F-3.3394782643283367
s(g2
(g3
g4
(F3
I00
I00
I2
I13
ttRp1197
g12
tp1198
F39.177495708548037
s(g271
g17
tp1199
F-5.4000000000000004
s(g2
(g3
g4
(F1
I00
I00
I2
I13
ttRp1200
g17
tp1201
F12.05579636383157
s(g122
g6
tp1202
F32.542237351097093
s(g761
g20
tp1203
F54.171808693591395
s(g1159
g12
tp1204
I0
s(g568
g6
tp1205
F-1.2764159500760908
s(g2
(g3
g4
(F1
I01
I00
I2
I13
ttRp1206
g17
tp1207
F-0.38995754748635725
s(g2
(g3
g4
(F5
I00
I00
I0
I15
ttRp1208
g17
tp1209
F21.503233198574296
s(g1098
g17
tp1210
F-4.0681355870685625
s(g2
(g3
g4
(F2
I01
I00
I4
I15
ttRp1211
g20
tp1212
F18.893174304180519
s(g962
g12
tp1213
F-10.578306802110202
s(g2
(g3
g4
(F7
I00
I00
I0
I11
ttRp1214
g12
tp1215
I0
s(g472
g12
tp1216
F26.744565850018233
s(g2
(g3
g4
(F9
I00
I00
I3
I15
ttRp1217
g6
tp1218
F4.6439744870096877
s(g2
(g3
g4
(F4
I00
I00
I2
I11
ttRp1219
g20
tp1220
F47.524190494107089
s(g2
(g3
g4
(F4
I00
I00
I1
I5
ttRp1221
g6
tp1222
F0.75477736404252804
s(g2
(g3
g4
(F0
I00
I00
I2
I13
ttRp1223
g9
tp1224
F39.835748112675105
s(g685
g20
tp1225
F25.393600793712672
s(g2
(g3
g4
(F0
I00
I00
I0
I15
ttRp1226
g12
tp1227
F108.54504656491044
s(g2
(g3
g4
(F2
I01
I00
I1
I13
ttRp1228
g9
tp1229
F35.620390738673898
s(g2
(g3
g4
(F3
I00
I00
I1
I9
ttRp1230
g6
tp1231
F47.372048619182458
s(g554
g12
tp1232
F36.619387826679457
s(g1185
g12
tp1233
I0
s(g777
g12
tp1234
F-1
s(g454
g17
tp1235
F-0.31337350936852726
s(g2
(g3
g4
(F3
I01
I00
I2
I15
ttRp1236
g17
tp1237
I0
s(g2
(g3
g4
(F8
I00
I00
I4
I15
ttRp1238
g20
tp1239
F7.6420813124215954
s(g2
(g3
g4
(F7
I00
I00
I3
I13
ttRp1240
g12
tp1241
F6.3962138703705342
s(g907
g17
tp1242
F-2.8200000000000003
s(g2
(g3
g4
(F7
I00
I00
I3
I5
ttRp1243
g12
tp1244
I0
s(g2
(g3
g4
(F7
I00
I00
I4
I15
ttRp1245
g6
tp1246
F15.74581175925942
s(g1035
g20
tp1247
I0
s(g853
g17
tp1248
F38.894608972259867
s(g312
g17
tp1249
I0
s(g282
g17
tp1250
F18.040203560785297
s(g2
(g3
g4
(F1
I00
I00
I3
I15
ttRp1251
g9
tp1252
F42.670763341579864
s(g2
(g3
g4
(F0
I00
I00
I0
I11
ttRp1253
g6
tp1254
F24.540990004970592
s(g2
(g3
g4
(F2
I00
I00
I3
I7
ttRp1255
g6
tp1256
F16.380414730507482
s(g2
(g3
g4
(F4
I00
I00
I3
I9
ttRp1257
g9
tp1258
F47.375217219374136
s(g522
g9
tp1259
F37.012478295737161
s(g2
(g3
g4
(F1
I00
I00
I1
I15
ttRp1260
g9
tp1261
F21.816101646774946
s(g2
(g3
g4
(F1
I00
I00
I0
I13
ttRp1262
g17
tp1263
I0
s(g316
g6
tp1264
F6.6846144247415245
s(g670
g12
tp1265
F10.251479169062883
s(g164
g20
tp1266
F50.02798569691145
s(g544
g17
tp1267
F14.431884323493481
s(g2
(g3
g4
(F10
I00
I00
I2
I9
ttRp1268
g12
tp1269
F16.415734936422901
s(g2
(g3
g4
(F1
I01
I00
I2
I11
ttRp1270
g6
tp1271
I0
s(g591
g6
tp1272
F-1.6729868301426112
s(g273
g9
tp1273
F38.154468992174699
s(g1024
g17
tp1274
I0
s(g1022
g12
tp1275
F-0.33419604411304926
s(g2
(g3
g4
(F10
I00
I00
I2
I14
ttRp1276
g17
tp1277
I0
s(g2
(g3
g4
(F8
I00
I00
I1
I9
ttRp1278
g17
tp1279
F-3
s(g2
(g3
g4
(F6
I00
I00
I0
I7
ttRp1280
g12
tp1281
F2.2034097522983789
s(g1230
g9
tp1282
F11.446165179744108
s(g8
g6
tp1283
F23.390338600975696
s(g2
(g3
g4
(F5
I00
I00
I1
I11
ttRp1284
g6
tp1285
F8.2568557195372545
s(g1032
g17
tp1286
F-4.5382448286720001
s(g22
g9
tp1287
F44.298972442241272
s(g2
(g3
g4
(F7
I00
I00
I0
I15
ttRp1288
g20
tp1289
F13.346385733013561
s(g2
(g3
g4
(F0
I00
I00
I2
I11
ttRp1290
g12
tp1291
F65.881292207369455
s(g2
(g3
g4
(F7
I00
I00
I2
I5
ttRp1292
g12
tp1293
F2.5156313479205075
s(g763
g6
tp1294
F1.6307559163333454
s(g1039
g17
tp1295
F26.934183652706793
s(g176
g9
tp1296
F8.0338096338856495
s(g2
(g3
g4
(F4
I00
I00
I3
I7
ttRp1297
g20
tp1298
F17.601001043378091
s(g301
g9
tp1299
I0
s(g414
g6
tp1300
I0
s(g278
g20
tp1301
F8.336520728171358
s(g1253
g9
tp1302
I0
s(g2
(g3
g4
(F2
I01
I00
I1
I9
ttRp1303
g12
tp1304
F-1.8048121471999998
s(g478
g20
tp1305
F-0.20288000000000006
s(g2
(g3
g4
(F0
I00
I00
I2
I11
ttRp1306
g9
tp1307
F41.278170843863421
s(g631
g20
tp1308
F20.13986605097417
s(g5
g12
tp1309
F-4.1165066665412322
s(g892
g6
tp1310
F54.846506755911278
s(g1260
g6
tp1311
F28.086347938003094
s(g580
g6
tp1312
F1.8512428070108884
s(g810
g6
tp1313
F6.3751801467614211
s(g2
(g3
g4
(F4
I00
I00
I4
I11
ttRp1314
g9
tp1315
F40.457316582286211
s(g2
(g3
g4
(F6
I00
I00
I0
I7
ttRp1316
g9
tp1317
F-0.20000000000000018
s(g2
(g3
g4
(F0
I00
I00
I2
I11
ttRp1318
g6
tp1319
F123.44598803133948
s(g2
(g3
g4
(F6
I00
I00
I3
I11
ttRp1320
g6
tp1321
F36.699676616586281
s(g2
(g3
g4
(F8
I00
I00
I3
I13
ttRp1322
g6
tp1323
F4.4154425135939732
s(g52
g17
tp1324
F24.742049985568226
s(g2
(g3
g4
(F6
I00
I00
I2
I13
ttRp1325
g12
tp1326
F12.381962113724395
s(g659
g17
tp1327
F21.565503149862622
s(g2
(g3
g4
(F10
I00
I00
I2
I9
ttRp1328
g9
tp1329
F33.321622143207591
s(g932
g20
tp1330
F6.9293353194171932
s(g2
(g3
g4
(F1
I01
I00
I3
I15
ttRp1331
g9
tp1332
F-1.9800000000000002
s(g1067
g17
tp1333
F7.158272263341714
s(g2
(g3
g4
(F1
I01
I00
I1
I9
ttRp1334
g20
tp1335
F-0.60000000000000009
s(g1032
g6
tp1336
F-4.1824354373783823
s(g2
(g3
g4
(F5
I00
I00
I0
I11
ttRp1337
g17
tp1338
F-0.20000000000000018
s(g367
g9
tp1339
F13.354718648253726
s(g2
(g3
g4
(F4
I00
I00
I2
I13
ttRp1340
g6
tp1341
F50.253659394659941
s(g102
g6
tp1342
F-3.8000000000000003
s(g2
(g3
g4
(F10
I00
I00
I3
I9
ttRp1343
g20
tp1344
F23.362515516777631
s(g154
g17
tp1345
F8.6136047514417786
s(g2
(g3
g4
(F8
I00
I00
I0
I15
ttRp1346
g20
tp1347
F12.973749601552058
s(g2
(g3
g4
(F2
I01
I00
I4
I14
ttRp1348
g9
tp1349
I0
s(g1243
g9
tp1350
F-1
s(g14
g12
tp1351
F6.3091272134321468
s(g1016
g17
tp1352
I0
s(g2
(g3
g4
(F3
I00
I00
I3
I5
ttRp1353
g17
tp1354
F14.656821648412773
s(g2
(g3
g4
(F7
I00
I00
I4
I13
ttRp1355
g20
tp1356
F8.4779760540764215
s(g1072
g20
tp1357
I0
s(g359
g9
tp1358
F4.7696418491567023
s(g383
g17
tp1359
F64.029449701808915
s(g2
(g3
g4
(F3
I00
I00
I0
I9
ttRp1360
g17
tp1361
I0
s(g905
g9
tp1362
F3.6421538558763746
s(g2
(g3
g4
(F2
I00
I00
I1
I15
ttRp1363
g6
tp1364
F47.15467900379209
s(g2
(g3
g4
(F4
I00
I00
I2
I15
ttRp1365
g9
tp1366
F37.113845760869332
s(g1050
g12
tp1367
F2.1162868789472888
s(g987
g17
tp1368
F28.209582846023324
s(g584
g6
tp1369
F6.1208663650023354
s(g2
(g3
g4
(F6
I00
I00
I0
I13
ttRp1370
g6
tp1371
F9.2777224221456933
s(g2
(g3
g4
(F10
I00
I00
I3
I11
ttRp1372
g9
tp1373
F22.642261482092636
s(g587
g17
tp1374
I0
s(g2
(g3
g4
(F8
I00
I00
I1
I14
ttRp1375
g12
tp1376
F1.1731138057216002
s(g726
g6
tp1377
F15.472299502543928
s(g952
g17
tp1378
I0
s(g729
g6
tp1379
F4.8283725163224638
s(g276
g6
tp1380
F8.2291703413969568
s(g734
g6
tp1381
F44.544454764953599
s(g1043
g17
tp1382
I0
s(g1348
g12
tp1383
F1.5072291906923199
s(g2
(g3
g4
(F1
I00
I00
I2
I11
ttRp1384
g20
tp1385
F21.864840754935049
s(g2
(g3
g4
(F3
I00
I00
I2
I15
ttRp1386
g9
tp1387
F40.432935056730578
s(g78
g20
tp1388
F-1.636546737079092
s(g174
g17
tp1389
F1.2578922954251335
s(g661
g6
tp1390
F-2.7175898173653756
s(g486
g6
tp1391
F21.936533244154038
s(g2
(g3
g4
(F3
I00
I00
I2
I5
ttRp1392
g6
tp1393
F21.607115299724811
s(g732
g9
tp1394
F7.2021457637467545
s(g2
(g3
g4
(F9
I00
I00
I0
I13
ttRp1395
g9
tp1396
F3.2673910855785673
s(g301
g12
tp1397
F110.98417910141345
s(g86
g6
tp1398
F36.146799623912138
s(g2
(g3
g4
(F1
I01
I00
I3
I9
ttRp1399
g9
tp1400
F-6.819234734084108
s(g2
(g3
g4
(F10
I00
I00
I3
I13
ttRp1401
g6
tp1402
F23.002078189773588
s(g2
(g3
g4
(F3
I00
I00
I4
I11
ttRp1403
g20
tp1404
F58.899669458267283
s(g769
g6
tp1405
I0
s(g321
g17
tp1406
F-2.1822041404326695
s(g2
(g3
g4
(F7
I00
I00
I2
I15
ttRp1407
g9
tp1408
F18.210066409514766
s(g1365
g6
tp1409
F48.277707666108221
s(g2
(g3
g4
(F7
I00
I00
I4
I7
ttRp1410
g6
tp1411
F-2.5071937429848532
s(g2
(g3
g4
(F5
I00
I00
I3
I9
ttRp1412
g17
tp1413
F-1.8695245460562431
s(g388
g12
tp1414
F18.772710926337215
s(g871
g12
tp1415
F46.706414939887928
s(g2
(g3
g4
(F10
I00
I00
I3
I7
ttRp1416
g9
tp1417
F18.709067858240573
s(g48
g9
tp1418
F-0.20000000000000018
s(g2
(g3
g4
(F2
I01
I00
I1
I9
ttRp1419
g6
tp1420
F-0.60000000000000009
s(g11
g20
tp1421
F-0.13981948297119079
s(g1032
g20
tp1422
F-2.2951774867116654
s(g64
g12
tp1423
F23.32780404888479
s(g1288
g17
tp1424
F19.655671196271914
s(g124
g9
tp1425
F42.039720040468062
s(g1260
g12
tp1426
F50.431565818878461
s(g670
g17
tp1427
I0
s(g548
g12
tp1428
F5.1540125791261371
s(g2
(g3
g4
(F1
I00
I00
I0
I15
ttRp1429
g6
tp1430
F6.6854275276693134
s(g2
(g3
g4
(F4
I00
I00
I3
I7
ttRp1431
g17
tp1432
F10.960030935763088
s(g1003
g12
tp1433
F112.44065803313967
s(g110
g17
tp1434
F-3
s(g1053
g17
tp1435
F32.176840459151734
s(g364
g9
tp1436
F29.91397204170077
s(g148
g20
tp1437
F6.8395218584304089
s(g2
(g3
g4
(F6
I00
I00
I4
I13
ttRp1438
g20
tp1439
F37.013447222943348
s(g1401
g9
tp1440
F24.584626406532376
s(g329
g12
tp1441
I0
s(g2
(g3
g4
(F7
I00
I00
I3
I9
ttRp1442
g17
tp1443
F-3.4036
s(g697
g17
tp1444
F-3
s(g254
g12
tp1445
I0
s(g148
g9
tp1446
F-2.9170643185560348
s(g170
g17
tp1447
F-2.7071144613849332
s(g947
g9
tp1448
F-0.67837922007039975
s(g224
g20
tp1449
F1.5027909317468016
s(g554
g20
tp1450
F35.468740141622625
s(g124
g20
tp1451
F-1.0037186394214406
s(g1171
g12
tp1452
F25.111768258437863
s(g2
(g3
g4
(F6
I00
I00
I2
I7
ttRp1453
g20
tp1454
F1.1171498393584787
s(g651
g17
tp1455
F-1.6114632787340244
s(g1053
g9
tp1456
F32.410948563093974
s(g871
g20
tp1457
I0
s(g905
g17
tp1458
F0.83503439295456161
s(g738
g9
tp1459
F6.5747346795696497
s(g1129
g9
tp1460
F-11.364874472313105
s(g80
g17
tp1461
F15.977698741495846
s(g1343
g17
tp1462
F7.7668277811666213
s(g2
(g3
g4
(F6
I00
I00
I4
I7
ttRp1463
g9
tp1464
F6.034495009099663
s(g2
(g3
g4
(F2
I00
I00
I0
I11
ttRp1465
g20
tp1466
F4.7153025781783873
s(g718
g12
tp1467
F-3.7127034912154939
s(g399
g6
tp1468
I0
s(g1353
g20
tp1469
F49.946720044515722
s(g1206
g20
tp1470
I0
s(g976
g12
tp1471
F31.704238677776285
s(g1208
g20
tp1472
F20.022537678328348
s(g76
g6
tp1473
F-0.26170473274320777
s(g102
g9
tp1474
F-0.82665359745622236
s(g2
(g3
g4
(F2
I01
I00
I2
I11
ttRp1475
g6
tp1476
F4.0657999565850753
s(g699
g17
tp1477
F20.577914107917277
s(g2
(g3
g4
(F8
I00
I00
I3
I11
ttRp1478
g20
tp1479
F12.297095201701548
s(g2
(g3
g4
(F2
I01
I00
I2
I5
ttRp1480
g12
tp1481
F-0.11364677536059453
s(g985
g17
tp1482
F35.129448932112503
s(g824
g6
tp1483
F34.891146604652512
s(g486
g12
tp1484
F-0.81999999999999995
s(g2
(g3
g4
(F2
I00
I00
I3
I13
ttRp1485
g12
tp1486
F49.79857832243178
s(g198
g9
tp1487
F17.902534148185985
s(g2
(g3
g4
(F3
I00
I00
I2
I13
ttRp1488
g17
tp1489
F28.378620707085478
s(g1043
g20
tp1490
I0
s(g60
g6
tp1491
F1.7208694861386571
s(g19
g6
tp1492
F-0.81999999999999995
s(g1200
g12
tp1493
F16.595082776387443
s(g16
g20
tp1494
F51.619368315956578
s(g82
g6
tp1495
I0
s(g266
g6
tp1496
F24.706988462989735
s(g2
(g3
g4
(F5
I00
I00
I4
I13
ttRp1497
g6
tp1498
F49.334486710873762
s(g903
g9
tp1499
F15.026583470023983
s(g457
g20
tp1500
F49.497055090588844
s(g1090
g6
tp1501
F36.969567689616106
s(g1208
g12
tp1502
F21.451011697020778
s(g1098
g12
tp1503
F-1.6793006455515451
s(g2
(g3
g4
(F4
I00
I00
I3
I15
ttRp1504
g17
tp1505
F45.778137661823529
s(g2
(g3
g4
(F7
I00
I00
I3
I7
ttRp1506
g20
tp1507
F-0.23182341073673429
s(g1214
g17
tp1508
F2.7411820670100608
s(g472
g17
tp1509
F22.544152025264221
s(g1166
g17
tp1510
F10.12589407467501
s(g262
g9
tp1511
F15.128607658345855
s(g412
g6
tp1512
I0
s(g794
g9
tp1513
I0
s(g666
g12
tp1514
F7.6923873150499436
s(g670
g6
tp1515
I0
s(g422
g12
tp1516
F-2.9268378880000001
s(g1185
g17
tp1517
I0
s(g582
g17
tp1518
I0
s(g2
(g3
g4
(F2
I00
I00
I4
I7
ttRp1519
g12
tp1520
F33.49138659101942
s(g180
g12
tp1521
F11.116459050324881
s(g454
g12
tp1522
F-1.9427541475953829
s(g1016
g9
tp1523
I0
s(g1429
g12
tp1524
F44.876841590895019
s(g2
(g3
g4
(F7
I00
I00
I3
I13
ttRp1525
g17
tp1526
F0.7021913267870552
s(g1480
g20
tp1527
F-0.71952548105469416
s(g907
g12
tp1528
F0.12201171472751149
s(g1243
g17
tp1529
I0
s(g2
(g3
g4
(F7
I00
I00
I2
I15
ttRp1530
g6
tp1531
F14.783285918251636
s(g371
g20
tp1532
I0
s(g2
(g3
g4
(F1
I01
I00
I4
I13
ttRp1533
g20
tp1534
F-10.722120257282702
s(g2
(g3
g4
(F7
I00
I00
I4
I15
ttRp1535
g20
tp1536
F4.5866617837146375
s(g1001
g20
tp1537
F14.564143210293553
s(g1072
g12
tp1538
F3
s(g222
g9
tp1539
F24.486404403051591
s(g131
g12
tp1540
F7.2174713257288436
s(g2
(g3
g4
(F4
I00
I00
I2
I5
ttRp1541
g20
tp1542
F46.596778955248475
s(g180
g9
tp1543
F-8.2386008899574996
s(g2
(g3
g4
(F5
I00
I00
I3
I11
ttRp1544
g20
tp1545
F22.278986345208793
s(g2
(g3
g4
(F9
I00
I00
I2
I15
ttRp1546
g20
tp1547
F7.2225514433145719
s(g1268
g17
tp1548
F21.38510464872056
s(g767
g12
tp1549
I0
s(g116
g9
tp1550
I0
s(g1475
g12
tp1551
F-3.011116724584459
s(g2
(g3
g4
(F0
I00
I00
I2
I13
ttRp1552
g6
tp1553
F120.15714061291825
s(g2
(g3
g4
(F2
I00
I00
I1
I7
ttRp1554
g20
tp1555
F46.281304776863202
s(g1022
g17
tp1556
F30.427113463099513
s(g454
g9
tp1557
F24.749052617619679
s(g2
(g3
g4
(F8
I00
I00
I1
I9
ttRp1558
g12
tp1559
F-3
s(g2
(g3
g4
(F9
I00
I00
I4
I9
ttRp1560
g9
tp1561
F-1
s(g2
(g3
g4
(F2
I00
I00
I2
I11
ttRp1562
g12
tp1563
F31.169455143256521
s(g542
g17
tp1564
F9.4876092486810073
s(g1238
g9
tp1565
F6.5496588158701607
s(g2
(g3
g4
(F0
I00
I00
I2
I11
ttRp1566
g17
tp1567
F40.789234164406786
s(g815
g17
tp1568
F0.93659332198641265
s(g2
(g3
g4
(F6
I00
I00
I2
I7
ttRp1569
g6
tp1570
F-0.79538724140156658
s(g42
g20
tp1571
F7.0439278617308538
s(g2
(g3
g4
(F1
I00
I00
I4
I14
ttRp1572
g12
tp1573
I0
s(g491
g6
tp1574
F-3.2700586141753818
s(g1208
g9
tp1575
F21.637264837626727
s(g2
(g3
g4
(F5
I00
I00
I4
I9
ttRp1576
g17
tp1577
F-3.1014565942839232
s(g2
(g3
g4
(F9
I00
I00
I3
I7
ttRp1578
g12
tp1579
F-2.8194282773855011
s(g531
g17
tp1580
F0.10316867325588275
s(g82
g12
tp1581
I0
s(g2
(g3
g4
(F9
I00
I00
I1
I13
ttRp1582
g12
tp1583
F0.93441374125296672
s(g1200
g9
tp1584
F54.264747938778832
s(g5
g17
tp1585
F-8.3684296386585011
s(g2
(g3
g4
(F6
I00
I00
I2
I13
ttRp1586
g17
tp1587
I0
s(g72
g12
tp1588
F6.8115443462242249
s(g2
(g3
g4
(F2
I00
I00
I3
I5
ttRp1589
g12
tp1590
F36.974163947926272
s(g820
g9
tp1591
I0
s(g62
g9
tp1592
F20.769564585090404
s(g1475
g20
tp1593
F47.207862301491069
s(g2
(g3
g4
(F9
I00
I00
I2
I5
ttRp1594
g9
tp1595
F-1
s(g449
g17
tp1596
F104.31163744945373
s(g831
g9
tp1597
F34.435983703072623
s(g52
g12
tp1598
F-9.9708407269657631
s(g476
g12
tp1599
I0
s(g659
g12
tp1600
F29.104549442222694
s(g2
(g3
g4
(F1
I00
I00
I0
I13
ttRp1601
g20
tp1602
F3
s(g2
(g3
g4
(F2
I01
I00
I2
I7
ttRp1603
g12
tp1604
F3.5766548809271299
s(g1236
g6
tp1605
F1.5747360099948786
s(g170
g12
tp1606
F-0.094880000000000075
s(g403
g9
tp1607
F13.35502221506826
s(g339
g12
tp1608
F8.3439772385207647
s(g868
g12
tp1609
F-2.4288982287099481
s(g2
(g3
g4
(F10
I00
I00
I0
I15
ttRp1610
g20
tp1611
F28.693877061678364
s(g976
g9
tp1612
F30.988221112753937
s(g160
g9
tp1613
F41.188275341904749
s(g2
(g3
g4
(F10
I00
I00
I3
I9
ttRp1614
g6
tp1615
F18.397057625969669
s(g282
g9
tp1616
F17.87343261699764
s(g2
(g3
g4
(F1
I00
I00
I2
I7
ttRp1617
g12
tp1618
F53.185405479492985
s(g11
g9
tp1619
F-0.13681599223725058
s(g2
(g3
g4
(F10
I00
I00
I3
I5
ttRp1620
g6
tp1621
F-3.6837440771538166
s(g1098
g6
tp1622
F-2.8399647498116325
s(g14
g17
tp1623
F20.104578068779858
s(g1353
g12
tp1624
F28.965940753334188
s(g1360
g12
tp1625
F2.2433481206525614
s(g2
(g3
g4
(F10
I00
I00
I4
I11
ttRp1626
g17
tp1627
F18.719517788327892
s(g2
(g3
g4
(F3
I00
I00
I2
I15
ttRp1628
g6
tp1629
F40.110292536262939
s(g392
g6
tp1630
F2.5918901901609246
s(g2
(g3
g4
(F7
I00
I00
I3
I5
ttRp1631
g20
tp1632
F20.735024628169512
s(g1067
g9
tp1633
F51.708347759803452
s(g1219
g9
tp1634
F40.057465944951922
s(g375
g6
tp1635
I0
s(g122
g9
tp1636
F1.1383704861775672
s(g1535
g17
tp1637
F4.4101779412492688
s(g252
g20
tp1638
F27.79853228385619
s(g546
g9
tp1639
F10.761504244641367
s(g952
g12
tp1640
F-4.6930073147545146
s(g285
g20
tp1641
F3.8675026437637889
s(g813
g20
tp1642
F2.8412579055138085
s(g663
g9
tp1643
I0
s(g2
(g3
g4
(F6
I00
I00
I2
I15
ttRp1644
g12
tp1645
F28.566127404627121
s(g1043
g12
tp1646
I0
s(g1348
g17
tp1647
I0
s(g2
(g3
g4
(F7
I00
I00
I2
I15
ttRp1648
g20
tp1649
F13.408866201437315
s(g106
g12
tp1650
I0
s(g1228
g6
tp1651
F1.4258467998274977
s(g2
(g3
g4
(F1
I01
I00
I4
I15
ttRp1652
g20
tp1653
F-1.5032526352485349
s(g2
(g3
g4
(F4
I00
I00
I4
I9
ttRp1654
g9
tp1655
F19.177005081085586
s(g1594
g20
tp1656
F14.686542537362204
s(g2
(g3
g4
(F0
I01
I00
I3
I13
ttRp1657
g9
tp1658
I0
s(g2
(g3
g4
(F2
I01
I00
I1
I15
ttRp1659
g6
tp1660
F18.410182698316863
s(g2
(g3
g4
(F5
I00
I00
I1
I9
ttRp1661
g9
tp1662
F36.605279359340997
s(g1372
g20
tp1663
F24.98571343169175
s(g142
g17
tp1664
F-0.83718319104000005
s(g2
(g3
g4
(F10
I00
I00
I2
I7
ttRp1665
g9
tp1666
F20.912147876260661
s(g78
g9
tp1667
F30.35394636410868
s(g236
g17
tp1668
F-1.2790096525092469
s(g629
g6
tp1669
I0
s(g748
g20
tp1670
F20.792805001300994
s(g1067
g6
tp1671
F11.975192670210978
s(g2
(g3
g4
(F8
I00
I00
I4
I5
ttRp1672
g9
tp1673
F-0.28560587577352159
s(g578
g6
tp1674
F41.03748494389604
s(g759
g20
tp1675
F18.339520600629776
s(g624
g9
tp1676
F21.643451869599577
s(g903
g17
tp1677
F3.8900232051210111
s(g424
g12
tp1678
F22.677193555477679
s(g1594
g6
tp1679
F-2.9260415675176734
s(g1288
g12
tp1680
F11.863704012474265
s(g905
g20
tp1681
F41.429863399894622
s(g1260
g17
tp1682
F16.273291433573366
s(g732
g12
tp1683
F43.717006523708697
s(g603
g9
tp1684
F9.5634670159479374
s(g2
(g3
g4
(F10
I00
I00
I0
I9
ttRp1685
g20
tp1686
F31.613556032226374
s(g2
(g3
g4
(F5
I00
I00
I3
I5
ttRp1687
g6
tp1688
F-2.6554340594968018
s(g144
g6
tp1689
F26.857979338590312
s(g864
g6
tp1690
F35.753382113089692
s(g1628
g12
tp1691
F36.995342078612055
s(g2
(g3
g4
(F2
I00
I00
I3
I5
ttRp1692
g17
tp1693
F12.646585884281249
s(g2
(g3
g4
(F7
I00
I00
I3
I9
ttRp1694
g12
tp1695
F-1.6151653419263701
s(g2
(g3
g4
(F10
I00
I00
I3
I9
ttRp1696
g9
tp1697
F33.195541328400061
s(g254
g20
tp1698
F12.805464679025674
s(g962
g6
tp1699
F-19.561532913704912
s(g1217
g12
tp1700
F2.4720751370058021
s(g1370
g17
tp1701
F-1.0959954257843654
s(g1070
g6
tp1702
F0.81472314440995541
s(g1221
g12
tp1703
F33.558512622261738
s(g2
(g3
g4
(F0
I00
I00
I0
I15
ttRp1704
g6
tp1705
F139.30095462604436
s(g1372
g12
tp1706
F13.611269542025013
s(g1090
g17
tp1707
F29.247800980600438
s(g1012
g12
tp1708
F17.347680822278505
s(g853
g20
tp1709
F9.0788616708069512
s(g220
g9
tp1710
F7.1570749548136057
s(g377
g12
tp1711
F127.01297129210242
s(g178
g17
tp1712
F0.12518428769646528
s(g1685
g9
tp1713
F7.0631136794194971
s(g687
g20
tp1714
F8.9375243032899654
s(g228
g6
tp1715
F34.503621934272552
s(g1221
g9
tp1716
F-0.36038753361032783
s(g689
g9
tp1717
I0
s(g1343
g12
tp1718
F10.435996422485101
s(g1401
g17
tp1719
F20.908055029701554
s(g968
g17
tp1720
F9.3921480270257653
s(g1137
g9
tp1721
F25.550826035435239
s(g1340
g9
tp1722
F41.912662352746963
s(g224
g6
tp1723
F-0.74297316962749427
s(g976
g17
tp1724
F25.986207115293361
s(g19
g9
tp1725
F1.3137495983341241
s(g1603
g20
tp1726
F-0.987776327897393
s(g2
(g3
g4
(F10
I00
I00
I3
I5
ttRp1727
g9
tp1728
F33.857399168416123
s(g1288
g9
tp1729
F9.7657390741743502
s(g535
g12
tp1730
F12.957757926655562
s(g699
g12
tp1731
F46.049170353402417
s(g1661
g20
tp1732
F5.4483245463442209
s(g501
g12
tp1733
I0
s(g486
g17
tp1734
F1
s(g1485
g17
tp1735
F13.481328458760164
s(g918
g12
tp1736
F30.652190047648546
s(g196
g9
tp1737
F7.8791643522528503
s(g1431
g6
tp1738
F-5.1981624989071493
s(g68
g6
tp1739
F13.980840383149012
s(g258
g6
tp1740
F24.235202807770865
s(g24
g6
tp1741
F35.26697075312039
s(g2
(g3
g4
(F2
I01
I00
I2
I13
ttRp1742
g6
tp1743
F7.5816659792656012
s(g449
g9
tp1744
I0
s(g813
g9
tp1745
F-0.20000000000000018
s(g269
g17
tp1746
I0
s(g2
(g3
g4
(F2
I01
I00
I3
I11
ttRp1747
g12
tp1748
F-8.6866791110415331
s(g102
g17
tp1749
F-1.5990855881894612
s(g697
g6
tp1750
I0
s(g1159
g20
tp1751
I0
s(g299
g6
tp1752
F-3
s(g2
(g3
g4
(F4
I00
I00
I3
I15
ttRp1753
g12
tp1754
F33.42287436545395
s(g806
g12
tp1755
F-0.92166400000000004
s(g580
g12
tp1756
F-3
s(g1166
g12
tp1757
F21.978315222200244
s(g594
g9
tp1758
F-6.377726515598046
s(g1465
g17
tp1759
F1.6747641885566524
s(g801
g9
tp1760
F61.997658333617039
s(g2
(g3
g4
(F4
I00
I00
I4
I9
ttRp1761
g6
tp1762
F18.367187357909224
s(g666
g17
tp1763
F21.564370692060741
s(g1546
g6
tp1764
F2.9425272075614548
s(g133
g20
tp1765
F6.8795153994239602
s(g582
g12
tp1766
F10.944795730069417
s(g1519
g17
tp1767
F12.332318970881708
s(g1314
g6
tp1768
F41.01023544517993
s(g1429
g17
tp1769
F7.5252019703685082
s(g661
g20
tp1770
I0
s(g154
g20
tp1771
F10.486193595228736
s(g2
(g3
g4
(F5
I00
I00
I2
I9
ttRp1772
g20
tp1773
F49.038108915717565
s(g2
(g3
g4
(F1
I01
I00
I2
I11
ttRp1774
g9
tp1775
F43.532812688014488
s(g1078
g20
tp1776
I0
s(g706
g6
tp1777
F17.629346227398358
s(g2
(g3
g4
(F4
I00
I00
I3
I5
ttRp1778
g20
tp1779
F2.5037433210520512
s(g118
g9
tp1780
I0
s(g864
g12
tp1781
F33.74728547529304
s(g603
g12
tp1782
F17.22923919035005
s(g1072
g17
tp1783
I0
s(g622
g12
tp1784
F1.6766602293070458
s(g1050
g20
tp1785
F14.051607477280697
s(g131
g17
tp1786
F5.7504684462872095
s(g1586
g20
tp1787
F36.397699712745499
s(g303
g9
tp1788
F6.2105005091938992
s(g767
g17
tp1789
I0
s(g773
g9
tp1790
F35.804647932577055
s(g1083
g17
tp1791
F12.794430096287618
s(g1475
g17
tp1792
F0.94899913453776708
s(g638
g20
tp1793
I0
s(g801
g6
tp1794
F10.365265035983089
s(g84
g12
tp1795
F6.1515793242273977
s(g1078
g6
tp1796
I0
s(g1185
g9
tp1797
F11.409672645138532
s(g439
g9
tp1798
F44.021961329267505
s(g861
g20
tp1799
F21.818340588189656
s(g2
(g3
g4
(F2
I00
I00
I2
I11
ttRp1800
g17
tp1801
F38.405777537482116
s(g1214
g20
tp1802
F0.23920000000000008
s(g82
g20
tp1803
I0
s(g122
g20
tp1804
F-1
s(g680
g9
tp1805
F0.72782092619926031
s(g2
(g3
g4
(F10
I00
I00
I3
I15
ttRp1806
g20
tp1807
F29.651742342900246
s(g2
(g3
g4
(F10
I00
I00
I1
I11
ttRp1808
g20
tp1809
F9.5980558119368773
s(g1603
g9
tp1810
F33.649077523385635
s(g1572
g17
tp1811
I0
s(g962
g9
tp1812
F-13.288748252290965
s(g412
g20
tp1813
I0
s(g1576
g12
tp1814
F0.38173251249379669
s(g2
(g3
g4
(F2
I01
I00
I2
I13
ttRp1815
g12
tp1816
F-2.7981485387480451
s(g1578
g17
tp1817
F10.412656475578665
s(g531
g12
tp1818
F-1.2638461277713167
s(g82
g17
tp1819
F19.539029887226807
s(g2
(g3
g4
(F2
I01
I00
I2
I5
ttRp1820
g17
tp1821
F-11.357550291642868
s(g726
g9
tp1822
F-4.4474024448000007
s(g50
g9
tp1823
I0
s(g1334
g6
tp1824
F-0.60000000000000009
s(g72
g17
tp1825
F-0.028901481980807109
s(g2
(g3
g4
(F4
I00
I00
I2
I7
ttRp1826
g9
tp1827
F12.231805755151299
s(g633
g12
tp1828
F0.38299839999999996
s(g542
g20
tp1829
F50.44743942899477
s(g64
g6
tp1830
F-4.4288034326102963
s(g1465
g9
tp1831
F39.114444732219518
s(g517
g12
tp1832
F58.946688803741687
s(g189
g9
tp1833
F35.625826609967177
s(g412
g17
tp1834
F51.45291900785007
s(g476
g17
tp1835
F22.974130350271238
s(g808
g9
tp1836
F5.2153429503354589
s(g1410
g12
tp1837
F2.2893126701307152
s(g1185
g6
tp1838
I0
s(g1603
g17
tp1839
I0
s(g1211
g12
tp1840
F-8.7678041640652467
s(g617
g6
tp1841
F-0.39307363509698157
s(g1137
g6
tp1842
F20.656371103196872
s(g2
(g3
g4
(F4
I00
I00
I2
I5
ttRp1843
g9
tp1844
F-2.3402101435015403
s(g339
g17
tp1845
F7.4673788333600033
s(g868
g17
tp1846
I0
s(g929
g17
tp1847
F37.099122622839737
s(g2
(g3
g4
(F8
I00
I00
I1
I9
ttRp1848
g9
tp1849
F20.414893266131873
s(g24
g12
tp1850
F30.023998997139653
s(g488
g20
tp1851
F37.946249252395383
s(g66
g9
tp1852
F33.09690096024962
s(g2
(g3
g4
(F3
I00
I00
I3
I9
ttRp1853
g9
tp1854
F38.115832520548629
s(g1475
g9
tp1855
F0.52700765143838035
s(g2
(g3
g4
(F7
I00
I00
I0
I11
ttRp1856
g6
tp1857
F15.616398097537134
s(g861
g6
tp1858
F32.908265408807516
s(g1478
g12
tp1859
F-3.0656253308040395
s(g460
g9
tp1860
F-0.78759999999999997
s(g32
g12
tp1861
F10.409506152402837
s(g2
(g3
g4
(F8
I00
I00
I4
I13
ttRp1862
g9
tp1863
I0
s(g2
(g3
g4
(F0
I00
I00
I1
I15
ttRp1864
g6
tp1865
F99.500687419403476
s(g1240
g6
tp1866
F5.7787823524082231
s(g364
g6
tp1867
F-1
s(g353
g9
tp1868
F19.44035338823786
s(g2
(g3
g4
(F7
I00
I00
I4
I15
ttRp1869
g12
tp1870
F27.376101043207345
s(g1200
g20
tp1871
F36.57437173070474
s(g508
g9
tp1872
F11.166138026237899
s(g347
g9
tp1873
F-1.4182147232994433
s(g355
g17
tp1874
F38.330359045383574
s(g689
g17
tp1875
I0
s(g137
g20
tp1876
I0
s(g894
g6
tp1877
I0
s(g1644
g17
tp1878
F27.94372745720479
s(g1778
g6
tp1879
F-1
s(g1429
g20
tp1880
I0
s(g653
g12
tp1881
F-7.1053742759804859
s(g2
(g3
g4
(F3
I00
I00
I3
I9
ttRp1882
g6
tp1883
F45.849651625928637
s(g2
(g3
g4
(F3
I01
I00
I4
I11
ttRp1884
g20
tp1885
F12.732199372069399
s(g1008
g9
tp1886
F29.783206635181632
s(g110
g9
tp1887
I0
s(g880
g20
tp1888
F-7.4686962106168453
s(g940
g20
tp1889
F7.6408648847008589
s(g1262
g9
tp1890
I0
s(g2
(g3
g4
(F2
I00
I00
I2
I15
ttRp1891
g20
tp1892
F35.849103510464246
s(g858
g9
tp1893
F29.642021777304656
s(g142
g12
tp1894
F0.19847650648125584
s(g2
(g3
g4
(F6
I00
I00
I1
I13
ttRp1895
g12
tp1896
F8.1337916633692053
s(g1862
g6
tp1897
F1.0435926717644866
s(g2
(g3
g4
(F5
I00
I00
I4
I13
ttRp1898
g20
tp1899
F13.356508860209116
s(g1485
g9
tp1900
F16.363007495574962
s(g2
(g3
g4
(F10
I00
I00
I1
I15
ttRp1901
g20
tp1902
F21.062756669415272
s(g424
g17
tp1903
F-2.0412806456007653
s(g1488
g20
tp1904
F56.445761047742671
s(g90
g12
tp1905
F17.452636224553487
s(g833
g20
tp1906
F-0.33438400923216682
s(g72
g20
tp1907
I0
s(g745
g12
tp1908
F42.350674099301294
s(g74
g20
tp1909
I0
s(g297
g17
tp1910
F0.048912132100299655
s(g687
g17
tp1911
F11.198510306300909
s(g1862
g20
tp1912
I0
s(g704
g12
tp1913
F7.2698114249458134
s(g439
g6
tp1914
F31.417022846016057
s(g732
g17
tp1915
F9.2523457384562349
s(g88
g20
tp1916
F10.094469071835054
s(g1578
g20
tp1917
F-2.7447702754652599
s(g1438
g17
tp1918
F0.36649290616905184
s(g1628
g17
tp1919
F38.797833072789587
s(g591
g9
tp1920
F11.972178197226457
s(g1208
g6
tp1921
F21.418062782042664
s(g2
(g3
g4
(F9
I00
I00
I1
I13
ttRp1922
g6
tp1923
F2.0166625662749671
s(g2
(g3
g4
(F3
I00
I00
I3
I9
ttRp1924
g20
tp1925
F31.053539753603978
s(g1129
g12
tp1926
F-10.214960523518526
s(g1217
g17
tp1927
F5.019692275346654
s(g198
g20
tp1928
F1.6464830814217435
s(g1370
g12
tp1929
F9.617556382271399
s(g1463
g6
tp1930
F1.8442904012002481
s(g1221
g17
tp1931
F-2.3492303595624282
s(g1372
g17
tp1932
F30.267176838368609
s(g789
g12
tp1933
F-3.0084338556890233
s(g2
(g3
g4
(F4
I00
I00
I2
I7
ttRp1934
g6
tp1935
F14.137628840161442
s(g785
g9
tp1936
F3.0509872899164954
s(g1090
g12
tp1937
F25.946534921667968
s(g1012
g17
tp1938
F16.786558035541098
s(g1778
g12
tp1939
F44.752545111907324
s(g377
g17
tp1940
F19
s(g2
(g3
g4
(F8
I00
I00
I1
I7
ttRp1941
g12
tp1942
F11.577181308689775
s(g808
g20
tp1943
F3.7139986100554809
s(g422
g20
tp1944
F8.3880567917943853
s(g853
g6
tp1945
F5.0302930070024479
s(g52
g20
tp1946
F-5.7000200642029171
s(g655
g12
tp1947
F22.582377791190826
s(g2
(g3
g4
(F8
I00
I00
I0
I13
ttRp1948
g20
tp1949
F6.0571027426396373
s(g1401
g12
tp1950
F36.743012651814347
s(g2
(g3
g4
(F1
I00
I00
I4
I11
ttRp1951
g9
tp1952
F44.219781054574376
s(g1219
g17
tp1953
F38.643570976761133
s(g968
g12
tp1954
F35.302817962780431
s(g323
g20
tp1955
F-1.0738351181969124
s(g775
g20
tp1956
I0
s(g1070
g20
tp1957
F1
s(g198
g6
tp1958
I0
s(g2
(g3
g4
(F8
I00
I00
I4
I13
ttRp1959
g12
tp1960
F23.594006846728153
s(g364
g12
tp1961
F1.7384913448086203
s(g32
g9
tp1962
F14.071528886157735
s(g1059
g6
tp1963
F-0.47219974326451464
s(g2
(g3
g4
(F8
I00
I00
I3
I13
ttRp1964
g20
tp1965
F2.3888293597730152
s(g828
g9
tp1966
F-10.502164616483849
s(g1070
g9
tp1967
F8.3765030564561744
s(g329
g17
tp1968
F2.9469546773629989
s(g1024
g6
tp1969
I0
s(g535
g17
tp1970
F12.73709146045284
s(g501
g17
tp1971
I0
s(g2
(g3
g4
(F3
I00
I00
I3
I9
ttRp1972
g12
tp1973
F12.708787633340682
s(g1519
g20
tp1974
F13.676868165536677
s(g568
g17
tp1975
F-3.2199999999999998
s(g335
g12
tp1976
I0
s(g918
g17
tp1977
F25.523262410379754
s(g478
g12
tp1978
F-3.3999999999999999
s(g2
(g3
g4
(F10
I00
I00
I4
I9
ttRp1979
g9
tp1980
F34.261572520735612
s(g773
g20
tp1981
F-0.18149761682314713
s(g1014
g9
tp1982
I0
s(g2
(g3
g4
(F5
I00
I00
I1
I11
ttRp1983
g9
tp1984
F9.9016515476152165
s(g810
g17
tp1985
F28.825389114212062
s(g102
g12
tp1986
F27.560011000743017
s(g2
(g3
g4
(F2
I00
I00
I2
I9
ttRp1987
g20
tp1988
F25.170164155532301
s(g2
(g3
g4
(F9
I00
I00
I0
I13
ttRp1989
g12
tp1990
F3.0025300062045477
s(g918
g20
tp1991
F29.09198103699126
s(g345
g12
tp1992
F7.1226015054265108
s(g2
(g3
g4
(F9
I00
I00
I2
I9
ttRp1993
g20
tp1994
F22.038118549041322
s(g580
g17
tp1995
F-0.28359999999999996
s(g1465
g12
tp1996
F0.83709980436853149
s(g1401
g20
tp1997
F25.274707391919499
s(g2
(g3
g4
(F4
I00
I00
I2
I7
ttRp1998
g12
tp1999
F3.2561648081977492
s(g574
g9
tp2000
F17.459820455231437
s(g78
g6
tp2001
F2.665909606482578
s(g2
(g3
g4
(F1
I00
I00
I2
I11
ttRp2002
g6
tp2003
F64.235316194011915
s(g801
g20
tp2004
F1.8593747199999999
s(g262
g20
tp2005
F53.47777718340415
s(g771
g12
tp2006
F37.183371943378368
s(g1171
g20
tp2007
I0
s(g894
g20
tp2008
I0
s(g258
g9
tp2009
F24.403576221039309
s(g864
g17
tp2010
F23.515807690096675
s(g622
g17
tp2011
F1.2488698174709452
s(g704
g17
tp2012
F-1.6873512830138284
s(g624
g6
tp2013
F6.0691774429989618
s(g666
g9
tp2014
F15.446851267227659
s(g246
g9
tp2015
I0
s(g2
(g3
g4
(F6
I00
I00
I3
I13
ttRp2016
g20
tp2017
F29.160735488717187
s(g976
g6
tp2018
F29.995228978035378
s(g1884
g6
tp2019
I0
s(g329
g20
tp2020
I0
s(g70
g20
tp2021
F6.9559491789743566
s(g2
(g3
g4
(F10
I00
I00
I1
I11
ttRp2022
g9
tp2023
F24.699775102008516
s(g538
g12
tp2024
F40.822606466572175
s(g1628
g20
tp2025
F55.326939789964435
s(g1083
g12
tp2026
F2.5655963079635877
s(g638
g6
tp2027
I0
s(g594
g6
tp2028
F-4.8981389923830099
s(g2
(g3
g4
(F5
I00
I00
I4
I11
ttRp2029
g17
tp2030
F3.933011574747888
s(g2
(g3
g4
(F7
I00
I00
I4
I13
ttRp2031
g6
tp2032
F-0.20000000000000018
s(g603
g6
tp2033
F7.6489919877073547
s(g228
g17
tp2034
F23.585159054601093
s(g1314
g20
tp2035
F55.076744890808293
s(g1687
g9
tp2036
F4.2496392623681549
s(g2
(g3
g4
(F3
I00
I00
I0
I15
ttRp2037
g9
tp2038
F26.862695900997593
s(g864
g9
tp2039
F34.657570000558422
s(g414
g17
tp2040
I0
s(g952
g6
tp2041
F7.66541597571468
s(g563
g12
tp2042
F6.0321636210448002
s(g1442
g20
tp2043
F-1.4641997620243543
s(g996
g17
tp2044
I0
s(g288
g9
tp2045
I0
s(g763
g17
tp2046
I0
s(g1815
g17
tp2047
F6.3155629557018766
s(g1506
g6
tp2048
F-1
s(g661
g17
tp2049
I0
s(g104
g17
tp2050
F-1
s(g1059
g12
tp2051
F10.640625354423142
s(g633
g17
tp2052
F0.41057499057356739
s(g960
g12
tp2053
I0
s(g937
g6
tp2054
F33.331031919169746
s(g517
g17
tp2055
F14.451765405092846
s(g160
g6
tp2056
F52.100154526499544
s(g412
g12
tp2057
I0
s(g1166
g9
tp2058
F13.400868213680923
s(g60
g20
tp2059
F28.375363846860711
s(g1901
g6
tp2060
F40.598652757884828
s(g42
g6
tp2061
F13.517283778334106
s(g619
g6
tp2062
F8.1987845136711108
s(g1410
g17
tp2063
F-0.408090916279361
s(g643
g9
tp2064
F28.948404321285924
s(g176
g12
tp2065
F3.119704488671232
s(g1211
g17
tp2066
F-9.732846186805439
s(g1519
g6
tp2067
F15.849203172179044
s(g815
g9
tp2068
F-1.2239634220848143
s(g478
g6
tp2069
F0.75374414379769505
s(g2
(g3
g4
(F5
I00
I00
I1
I9
ttRp2070
g6
tp2071
F-1
s(g68
g17
tp2072
F-0.21124806382505756
s(g932
g9
tp2073
F2.8229348797732592
s(g2
(g3
g4
(F3
I00
I00
I2
I11
ttRp2074
g12
tp2075
F39.499701582015604
s(g342
g6
tp2076
I0
s(g1594
g12
tp2077
F1.6844418643034933
s(g24
g17
tp2078
F28.803622347417463
s(g288
g6
tp2079
I0
s(g1288
g6
tp2080
F13.744135423848149
s(g699
g9
tp2081
F26.918812591140959
s(g676
g6
tp2082
I0
s(g1334
g9
tp2083
F47.143383407353888
s(g680
g17
tp2084
F21.646435017671831
s(g1478
g17
tp2085
F1.890197264304778
s(g466
g12
tp2086
F21.261885086349253
s(g1465
g6
tp2087
F7.9642239759265898
s(g1948
g6
tp2088
F3.6473515317621672
s(g1687
g12
tp2089
F-2.9211117955053929
s(g960
g6
tp2090
I0
s(g19
g12
tp2091
F49.270963849493484
s(g1644
g6
tp2092
F40.999184305714166
s(g1442
g6
tp2093
F-1.8078016833788682
s(g655
g20
tp2094
F21.105674425022965
s(g106
g20
tp2095
I0
s(g26
g9
tp2096
I0
s(g100
g9
tp2097
F28.360038182306731
s(g736
g12
tp2098
F37.128047996195072
s(g129
g20
tp2099
F-1.4039999999999999
s(g820
g20
tp2100
F1.3484982965623469
s(g1657
g6
tp2101
I0
s(g144
g9
tp2102
F34.061562515665194
s(g706
g17
tp2103
F29.899843126256506
s(g550
g6
tp2104
F53.515890504312573
s(g445
g12
tp2105
I0
s(g689
g12
tp2106
I0
s(g2
(g3
g4
(F1
I00
I00
I3
I9
ttRp2107
g9
tp2108
F30.42251686018157
s(g342
g9
tp2109
I0
s(g738
g17
tp2110
F-1
s(g653
g17
tp2111
F20.510438111020193
s(g609
g17
tp2112
F-3
s(g1166
g20
tp2113
F44.700158720560601
s(g777
g20
tp2114
F-0.47191980465753813
s(g152
g9
tp2115
I0
s(g2
(g3
g4
(F2
I00
I00
I4
I9
ttRp2116
g9
tp2117
F64.565977226542088
s(g131
g6
tp2118
F4.8785055480916526
s(g220
g12
tp2119
F1.2739138234971898
s(g1480
g6
tp2120
F21.838392518919598
s(g771
g9
tp2121
F18.825223723495778
s(g96
g20
tp2122
F25.8443693016456
s(g1214
g9
tp2123
F0.22668792063999998
s(g191
g6
tp2124
F11.931709657276969
s(g767
g6
tp2125
F-2.8200000000000003
s(g2
(g3
g4
(F10
I00
I00
I1
I13
ttRp2126
g9
tp2127
F23.744363821180404
s(g2
(g3
g4
(F9
I00
I00
I0
I7
ttRp2128
g20
tp2129
F14.124167106444739
s(g624
g20
tp2130
F3.0742611303947283
s(g1687
g20
tp2131
F40.776746016920143
s(g1159
g9
tp2132
F-1.511893204996968
s(g108
g17
tp2133
F-3.5193171830490764
s(g407
g6
tp2134
I0
s(g1217
g9
tp2135
F18.908733481782146
s(g1576
g9
tp2136
F-1
s(g1901
g12
tp2137
F23.62470088745345
s(g706
g9
tp2138
F20.751233539753308
s(g1442
g9
tp2139
F28.052661288259618
s(g1035
g9
tp2140
I0
s(g1594
g17
tp2141
F-3.6034101056915384
s(g833
g12
tp2142
F-0.53280000000000016
s(g617
g17
tp2143
F17.745275412860259
s(g1815
g20
tp2144
F36.106713859187856
s(g1572
g6
tp2145
F3
s(g2
(g3
g4
(F4
I00
I00
I3
I9
ttRp2146
g20
tp2147
F25.773279855776934
s(g90
g17
tp2148
F16.325224921361855
s(g36
g20
tp2149
I0
s(g305
g9
tp2150
F3.2596620192007952
s(g76
g9
tp2151
I0
s(g745
g17
tp2152
F21.256564462941821
s(g1067
g20
tp2153
F14.568048856075805
s(g1334
g17
tp2154
I0
s(g748
g6
tp2155
F10.17450558709211
s(g824
g20
tp2156
F27.748584574076492
s(g309
g9
tp2157
F-8.6808027679189657
s(g937
g12
tp2158
F26.055337129247174
s(g60
g17
tp2159
F2.8700168079736907
s(g574
g20
tp2160
F32.138583753609211
s(g285
g9
tp2161
F2.3012441398450152
s(g824
g9
tp2162
F27.481656694630921
s(g278
g12
tp2163
F0.72566807078103479
s(g258
g20
tp2164
F22.874611481661738
s(g1603
g6
tp2165
I0
s(g68
g20
tp2166
F0.4496725785600002
s(g196
g6
tp2167
F30.744646313412435
s(g775
g17
tp2168
F23.331866202310085
s(g704
g20
tp2169
F24.883355129351283
s(g1129
g17
tp2170
F-12.556442187890772
s(g1661
g12
tp2171
F-1.5683039999999999
s(g828
g12
tp2172
F-12.618772283327418
s(g2
(g3
g4
(F0
I00
I00
I1
I11
ttRp2173
g20
tp2174
F118.18086155496681
s(g1657
g12
tp2175
I0
s(g2
(g3
g4
(F2
I00
I00
I4
I15
ttRp2176
g9
tp2177
F17.097690025756535
s(g789
g17
tp2178
F-1.0166941132914937
s(g2
(g3
g4
(F4
I00
I00
I4
I9
ttRp2179
g12
tp2180
F15.400441164384503
s(g2
(g3
g4
(F9
I00
I00
I2
I15
ttRp2181
g12
tp2182
F4.0567050438541923
s(g383
g6
tp2183
I0
s(g1778
g17
tp2184
F10.164159076979079
s(g178
g20
tp2185
I0
s(g533
g9
tp2186
F36.838901478522885
s(g252
g12
tp2187
F30.383614899099843
s(g1243
g6
tp2188
I0
s(g899
g20
tp2189
F27.061866563246259
s(g789
g20
tp2190
F23.768573820224606
s(g108
g9
tp2191
I0
s(g655
g17
tp2192
F22.552178405905313
s(g98
g9
tp2193
I0
s(g1219
g12
tp2194
F26.874064479676139
s(g373
g20
tp2195
F22.807336944917338
s(g1862
g17
tp2196
F5.1126734464450241
s(g364
g17
tp2197
F9.3222553101002745
s(g232
g12
tp2198
F-1.5411852512957134
s(g609
g9
tp2199
F7.3727531198554894
s(g2
(g3
g4
(F4
I00
I00
I3
I7
ttRp2200
g9
tp2201
F15.958682107525869
s(g2
(g3
g4
(F10
I00
I00
I2
I9
ttRp2202
g6
tp2203
F23.756674534819304
s(g1370
g9
tp2204
F17.835027859063448
s(g653
g20
tp2205
F-1.7679052242863502
s(g1353
g9
tp2206
F16.274595602119934
s(g383
g20
tp2207
I0
s(g1438
g9
tp2208
F17.326462353294016
s(g323
g9
tp2209
I0
s(g1438
g6
tp2210
F18.873918712323015
s(g974
g20
tp2211
F89.712637596193872
s(g1882
g17
tp2212
F15.347667428680888
s(g713
g9
tp2213
F0.65364138508030178
s(g297
g6
tp2214
F1.1800000000000002
s(g568
g12
tp2215
F-2.7507824762880002
s(g335
g17
tp2216
I0
s(g1582
g20
tp2217
F16.290957542343627
s(g732
g6
tp2218
F0.33515721604189408
s(g1157
g17
tp2219
I0
s(g98
g6
tp2220
I0
s(g844
g17
tp2221
I0
s(g410
g9
tp2222
I0
s(g90
g9
tp2223
F10.916519659075533
s(g94
g20
tp2224
I0
s(g574
g6
tp2225
F19.343248028920655
s(g476
g9
tp2226
I0
s(g1989
g17
tp2227
F-0.02547667426905309
s(g1582
g17
tp2228
F0.069904582059029385
s(g345
g17
tp2229
F7.3694786551442872
s(g116
g20
tp2230
I0
s(g174
g9
tp2231
I0
s(g1372
g6
tp2232
F21.44131465079499
s(g1826
g17
tp2233
F38.738202456907764
s(g260
g20
tp2234
F32.675490726367748
s(g2
(g3
g4
(F4
I00
I00
I1
I9
ttRp2235
g6
tp2236
F14.715757246140406
s(g1578
g9
tp2237
F-2.801774579820806
s(g858
g6
tp2238
F-2.275157068141592
s(g713
g6
tp2239
I0
s(g771
g17
tp2240
F10.276015765469078
s(g651
g20
tp2241
F-2.090525482842351
s(g729
g20
tp2242
I0
s(g2
(g3
g4
(F3
I00
I00
I4
I13
ttRp2243
g20
tp2244
F57.766721773089984
s(g940
g6
tp2245
I0
s(g96
g6
tp2246
F5.0885634198766398
s(g538
g17
tp2247
F114.95140704309652
s(g329
g6
tp2248
I0
s(g2
(g3
g4
(F8
I00
I00
I2
I5
ttRp2249
g17
tp2250
F-0.81999999999999995
s(g1083
g20
tp2251
F-0.96501140339562419
s(g899
g17
tp2252
F33.200276953187561
s(g228
g12
tp2253
F25.003260148163676
s(g2
(g3
g4
(F8
I00
I00
I2
I15
ttRp2254
g6
tp2255
F32.431499492450463
s(g563
g17
tp2256
F41.47545188052927
s(g1951
g17
tp2257
F17.694216294196053
s(g670
g9
tp2258
I0
s(g2
(g3
g4
(F10
I00
I00
I1
I11
ttRp2259
g17
tp2260
F8.6002621308159242
s(g996
g12
tp2261
I0
s(g1219
g6
tp2262
F52.629203724863267
s(g1519
g9
tp2263
F17.076173617297872
s(g106
g6
tp2264
F8.1230581104444344
s(g661
g12
tp2265
F21.835839246978491
s(g104
g12
tp2266
F22.913553999311876
s(g1228
g17
tp2267
I0
s(g1059
g17
tp2268
F1.071722040121001
s(g318
g9
tp2269
F-0.67212565010493164
s(g1843
g12
tp2270
F9.4718736752467869
s(g614
g20
tp2271
I0
s(g960
g17
tp2272
I0
s(g2
(g3
g4
(F6
I00
I00
I3
I11
ttRp2273
g20
tp2274
F19.686449668365924
s(g831
g17
tp2275
F38.850019723815599
s(g454
g20
tp2276
F0.94630457761664033
s(g176
g17
tp2277
F3.4317233552894439
s(g1504
g20
tp2278
F31.156492638627721
s(g68
g12
tp2279
F-3.1147387303672618
s(g633
g9
tp2280
F15.769103348880567
s(g2
(g3
g4
(F1
I00
I00
I2
I9
ttRp2281
g6
tp2282
F15.77156161610413
s(g414
g20
tp2283
I0
s(g2
(g3
g4
(F9
I00
I00
I0
I5
ttRp2284
g20
tp2285
F-1
s(g58
g9
tp2286
F22.159591404450985
s(g2
(g3
g4
(F9
I00
I00
I2
I9
ttRp2287
g9
tp2288
F-1.8199008000000001
s(g486
g9
tp2289
F3.6600240481070729
s(g1024
g9
tp2290
F-1
s(g544
g9
tp2291
F17.424018625289197
s(g1014
g17
tp2292
I0
s(g680
g12
tp2293
F-0.81999999999999995
s(g1262
g12
tp2294
I0
s(g201
g17
tp2295
F27.320896097582601
s(g466
g17
tp2296
F1.1682323971850159
s(g996
g6
tp2297
I0
s(g1687
g17
tp2298
F5.3697986781141864
s(g19
g17
tp2299
F-0.076028467954361523
s(g713
g12
tp2300
F-1
s(g1014
g20
tp2301
I0
s(g833
g9
tp2302
F-0.99776799999999999
s(g8
g12
tp2303
F27.888393321617816
s(g1008
g20
tp2304
F31.470687511958786
s(g570
g6
tp2305
F5.7634738699020698
s(g1463
g12
tp2306
F29.875711851180096
s(g193
g17
tp2307
I0
s(g706
g12
tp2308
F16.59258606274539
s(g1035
g6
tp2309
F1.7420938217592785
s(g1255
g20
tp2310
F48.538792894863981
s(g445
g17
tp2311
F-0.81999999999999995
s(g1001
g6
tp2312
F47.026325383573059
s(g529
g9
tp2313
I0
s(g58
g6
tp2314
F4.9047405220629532
s(g1003
g9
tp2315
F23.760043149008844
s(g738
g12
tp2316
F-1
s(g609
g12
tp2317
F-1
s(g1255
g9
tp2318
F15.176386397044588
s(g1008
g17
tp2319
F40.608693426666434
s(g220
g17
tp2320
F-0.20835376165114972
s(g316
g12
tp2321
F10.170361799708669
s(g2
(g3
g4
(F3
I00
I00
I2
I9
ttRp2322
g6
tp2323
F47.036436961997815
s(g1884
g17
tp2324
F-3.8429927135216326
s(g271
g12
tp2325
I0
s(g676
g9
tp2326
I0
s(g1270
g12
tp2327
F6.1724417795483877
s(g1480
g9
tp2328
F-0.27202917981144709
s(g1050
g6
tp2329
F11.914515840047985
s(g108
g12
tp2330
F26.940475782088662
s(g1685
g6
tp2331
F3.7115944934400007
s(g248
g9
tp2332
F17.415480943182462
s(g968
g6
tp2333
F2.6181697450237174
s(g1901
g17
tp2334
F22.340676747698645
s(g148
g12
tp2335
F4.7950143215613679
s(g985
g6
tp2336
F41.295729820884205
s(g794
g17
tp2337
I0
s(g2
(g3
g4
(F2
I01
I00
I4
I15
ttRp2338
g6
tp2339
F-7.7531826515105262
s(g100
g12
tp2340
F40.630858276079529
s(g1546
g9
tp2341
F26.688747757758193
s(g457
g6
tp2342
F32.522235543646289
s(g617
g12
tp2343
F3.3315953844024153
s(g92
g9
tp2344
F35.82383650537794
s(g1276
g6
tp2345
I0
s(g1043
g9
tp2346
F4.245462663707336
s(g269
g12
tp2347
I0
s(g2
(g3
g4
(F2
I00
I00
I4
I11
ttRp2348
g6
tp2349
F64.499456818076695
s(g2
(g3
g4
(F7
I00
I00
I0
I13
ttRp2350
g9
tp2351
F6.2571825918682924
s(g124
g12
tp2352
I0
s(g90
g20
tp2353
F18.880954919560672
s(g1506
g17
tp2354
F23.221321979594926
s(g638
g9
tp2355
I0
s(g1334
g12
tp2356
F-0.061125965408943106
s(g1159
g17
tp2357
I0
s(g726
g17
tp2358
F-2.1564915160953078
s(g2
(g3
g4
(F4
I00
I00
I2
I15
ttRp2359
g20
tp2360
F38.806007664052686
s(g937
g17
tp2361
F44.55955635030665
s(g60
g12
tp2362
F8.438368086258496
s(g1478
g6
tp2363
F28.283884195851222
s(g2
(g3
g4
(F2
I00
I00
I4
I15
ttRp2364
g20
tp2365
F21.94492684248101
s(g871
g9
tp2366
I0
s(g2
(g3
g4
(F8
I00
I00
I3
I13
ttRp2367
g12
tp2368
F3.1594760356256986
s(g278
g17
tp2369
F-2.4307030229102402
s(g619
g17
tp2370
F1.3909790956092483
s(g773
g6
tp2371
I0
s(g614
g17
tp2372
I0
s(g775
g12
tp2373
I0
s(g535
g9
tp2374
F13.196588073299511
s(g1050
g9
tp2375
F7.100415613489707
s(g1661
g17
tp2376
F9.723171537041285
s(g828
g17
tp2377
F-12.504002105823449
s(g2
(g3
g4
(F7
I00
I00
I2
I7
ttRp2378
g9
tp2379
F5.3196245332219787
s(g1657
g17
tp2380
I0
s(g806
g17
tp2381
F-0.20960156151967901
s(g28
g12
tp2382
F-0.050792705616850321
s(g813
g6
tp2383
F-2.620409644990648
s(g1340
g12
tp2384
F39.979181631046579
s(g2179
g17
tp2385
F19.146965253823357
s(g260
g9
tp2386
F29.394188802318574
s(g1546
g17
tp2387
F0.91974820308669558
s(g653
g6
tp2388
F-10.02434273897236
s(g2
(g3
g4
(F8
I00
I00
I1
I5
ttRp2389
g6
tp2390
F-1
s(g1268
g20
tp2391
F36.647231165156214
s(g1059
g9
tp2392
F8.2659542706791438
s(g2
(g3
g4
(F6
I00
I00
I4
I15
ttRp2393
g17
tp2394
F20.563669465056496
s(g1901
g9
tp2395
F23.041247695773535
s(g2
(g3
g4
(F4
I00
I00
I4
I7
ttRp2396
g9
tp2397
F10.605668290138569
s(g1685
g12
tp2398
F2.7448787896762408
s(g1072
g6
tp2399
I0
s(g238
g20
tp2400
F30.035906265163508
s(g333
g6
tp2401
F34.685018872621157
s(g1365
g12
tp2402
F39.64385346294754
s(g1384
g9
tp2403
F11.622769222292598
s(g2
(g3
g4
(F1
I01
I00
I4
I15
ttRp2404
g17
tp2405
F-1.5428992169969864
s(g570
g12
tp2406
F16.561334158275734
s(g808
g6
tp2407
F3.8035827678876943
s(g457
g12
tp2408
F8.3685633356101548
s(g228
g20
tp2409
F28.845698337753927
s(g1003
g17
tp2410
F59.689521754861104
s(g550
g17
tp2411
F68.810984804714124
s(g540
g9
tp2412
F1.8739587196768701
s(g1340
g20
tp2413
F36.97899458456083
s(g508
g17
tp2414
F-4.0967872875863725
s(g14
g9
tp2415
F5.7059013658592974
s(g1083
g9
tp2416
F32.005535215404528
s(g1078
g17
tp2417
F-4.0385826369769138
s(g1826
g20
tp2418
F13.707659745976356
s(g826
g20
tp2419
F22.348263688716592
s(g743
g20
tp2420
F3.2017600000000002
s(g208
g12
tp2421
F4.1962801923361912
s(g1251
g6
tp2422
F19.76981580534796
s(g2
(g3
g4
(F5
I00
I00
I2
I7
ttRp2423
g6
tp2424
F1.4147481124712971
s(g137
g9
tp2425
I0
s(g704
g6
tp2426
F8.954028059797853
s(g11
g6
tp2427
I0
s(g108
g6
tp2428
I0
s(g144
g20
tp2429
F47.63973286893448
s(g1157
g12
tp2430
F44.817748940110626
s(g2
(g3
g4
(F9
I00
I00
I3
I7
ttRp2431
g6
tp2432
F-3
s(g844
g12
tp2433
I0
s(g1260
g20
tp2434
F27.712885776404452
s(g701
g9
tp2435
F-7.6230745868082881
s(g810
g20
tp2436
F5.4343761034851124
s(g180
g20
tp2437
F-7.9361507189600546
s(g388
g6
tp2438
F23.594059330081205
s(g1129
g6
tp2439
F-12.00922032258163
s(g1410
g20
tp2440
F26.113733961922566
s(g769
g20
tp2441
I0
s(g491
g20
tp2442
F-2.4439627651137488
s(g1047
g20
tp2443
I0
s(g1238
g6
tp2444
F26.809358197913138
s(g1586
g9
tp2445
F20.056027286377649
s(g1665
g12
tp2446
F18.949314321654253
s(g1572
g20
tp2447
I0
s(g1047
g9
tp2448
F39.877463171913341
s(g66
g20
tp2449
F31.174703290838327
s(g2
(g3
g4
(F3
I00
I00
I2
I5
ttRp2450
g20
tp2451
F16.994435961759688
s(g2
(g3
g4
(F3
I00
I00
I1
I5
ttRp2452
g20
tp2453
F2.7926035200000001
s(g94
g9
tp2454
I0
s(g1236
g12
tp2455
F32.763181799546935
s(g1270
g20
tp2456
I0
s(g276
g20
tp2457
F9.3370873423592009
s(g718
g6
tp2458
F10.207551045033235
s(g92
g6
tp2459
F56.940944363833019
s(g196
g17
tp2460
F7.1708775290020679
s(g1644
g9
tp2461
F27.803736732298773
s(g1544
g6
tp2462
F26.93057471711392
s(g399
g12
tp2463
I0
s(g960
g9
tp2464
I0
s(g2
(g3
g4
(F2
I01
I00
I1
I13
ttRp2465
g20
tp2466
F0.76158473838485063
s(g697
g9
tp2467
I0
s(g798
g9
tp2468
F37.001618933416808
s(g273
g12
tp2469
F12.313438222961711
s(g1948
g12
tp2470
F14.65143527026436
s(g373
g9
tp2471
F22.402813684214774
s(g371
g6
tp2472
F44.165077671324596
s(g401
g20
tp2473
F-5.7692657563427208
s(g285
g6
tp2474
F33.156348657686102
s(g899
g12
tp2475
F28.56349091607775
s(g1657
g20
tp2476
F16.199999999999999
s(g129
g6
tp2477
F-1.8
s(g1251
g12
tp2478
F13.164493403456005
s(g2
(g3
g4
(F7
I00
I00
I3
I13
ttRp2479
g20
tp2480
F24.43100445025712
s(g655
g6
tp2481
F23.221716199246838
s(g1951
g12
tp2482
F11.588237844970127
s(g689
g6
tp2483
F-1
s(g410
g20
tp2484
F4.6732411883212102
s(g950
g12
tp2485
I0
s(g2
(g3
g4
(F7
I00
I00
I3
I13
ttRp2486
g9
tp2487
F6.2825785548647666
s(g2
(g3
g4
(F9
I00
I00
I3
I15
ttRp2488
g20
tp2489
F3.1161076508731282
s(g1228
g12
tp2490
F4.4220600269597625
s(g104
g20
tp2491
F-3.2348598024836512
s(g1843
g17
tp2492
F10.667541529705353
s(g932
g6
tp2493
F2.3719744642442242
s(g96
g9
tp2494
F112.10871776550576
s(g806
g20
tp2495
F-0.20000000000000018
s(g1098
g20
tp2496
F6.3979414134076995
s(g2
(g3
g4
(F8
I00
I00
I1
I7
ttRp2497
g9
tp2498
F0.43878100910792495
s(g156
g6
tp2499
F3.7054125336005419
s(g16
g6
tp2500
I0
s(g1778
g9
tp2501
F7.5000950680519676
s(g785
g12
tp2502
F14.742455057207479
s(g1238
g17
tp2503
F-0.020075408807546213
s(g659
g9
tp2504
F15.957898899312898
s(g342
g20
tp2505
F12.410462117508377
s(g422
g17
tp2506
F-1
s(g831
g12
tp2507
F33.865906891933435
s(g246
g20
tp2508
I0
s(g1137
g20
tp2509
F25.853236621429389
s(g729
g9
tp2510
I0
s(g614
g6
tp2511
F1
s(g325
g9
tp2512
I0
s(g416
g9
tp2513
F-7.3736575019930743
s(g1236
g20
tp2514
F1.4527393882186239
s(g1022
g9
tp2515
F2.9738158584215695
s(g2
(g3
g4
(F6
I00
I00
I2
I11
ttRp2516
g6
tp2517
F9.9449380826033789
s(g170
g20
tp2518
F3.2303473156069207
s(g269
g6
tp2519
F1
s(g271
g20
tp2520
I0
s(g1157
g6
tp2521
I0
s(g297
g20
tp2522
F0.38774019706619312
s(g1253
g17
tp2523
I0
s(g940
g17
tp2524
I0
s(g2146
g6
tp2525
F21.570247956115772
s(g1206
g6
tp2526
F-1.086985984
s(g1989
g6
tp2527
F15.166508609450956
s(g1572
g9
tp2528
I0
s(g1276
g20
tp2529
I0
s(g1014
g12
tp2530
F16.197495806452142
s(g22
g17
tp2531
F33.335284732337499
s(g745
g9
tp2532
F19.769555544783159
s(g201
g12
tp2533
F21.222626846301868
s(g1238
g12
tp2534
F3.7662999345919284
s(g587
g20
tp2535
I0
s(g763
g20
tp2536
I0
s(g1230
g17
tp2537
F17.979178463407905
s(g114
g9
tp2538
F9.3237760162705019
s(g907
g20
tp2539
F-0.90887961947248563
s(g713
g17
tp2540
F31.43432045883478
s(g8
g17
tp2541
F25.383210267999882
s(g767
g9
tp2542
F7.8110107981317833
s(g48
g6
tp2543
F-2.8200000000000003
s(g1463
g17
tp2544
F-0.35247160221304363
s(g2
(g3
g4
(F6
I00
I00
I1
I13
ttRp2545
g9
tp2546
F-1.221984
s(g563
g6
tp2547
F3.4294805787656495
s(g469
g9
tp2548
F126.18423749558141
s(g150
g6
tp2549
F-14.927276457345849
s(g474
g6
tp2550
I0
s(g1478
g9
tp2551
F4.4065920055756207
s(g1544
g12
tp2552
F18.483084961774313
s(g685
g9
tp2553
F35.562039635593905
s(g70
g6
tp2554
F-1.8616461434883886
s(g1008
g12
tp2555
F27.169269146041785
s(g316
g17
tp2556
F19.865680527867852
s(g892
g17
tp2557
F31.138904935975432
s(g1884
g12
tp2558
F-2.6204308231090572
s(g544
g6
tp2559
F10.868585980946426
s(g672
g12
tp2560
I0
s(g1270
g17
tp2561
F5.2595959941314732
s(g538
g6
tp2562
F44.764005388561159
s(g64
g20
tp2563
F-0.3742954076730336
s(g540
g17
tp2564
F17.907222266265009
s(g1221
g20
tp2565
F0.77587200000000012
s(g2
(g3
g4
(F2
I01
I00
I4
I14
ttRp2566
g6
tp2567
F-1.7079435071361546
s(g546
g17
tp2568
I0
s(g148
g17
tp2569
F1.3764262835745456
s(g794
g12
tp2570
F-1
s(g100
g17
tp2571
F22.778203026333649
s(g1665
g20
tp2572
F25.786181202913589
s(g715
g20
tp2573
F32.895636739494705
s(g1951
g6
tp2574
F17.708731705678346
s(g1544
g9
tp2575
F44.261624219381396
s(g789
g9
tp2576
F-1
s(g2281
g17
tp2577
F17.389992664632935
s(g540
g20
tp2578
F1.0516737356833232
s(g2179
g20
tp2579
F52.537440532825094
s(g566
g17
tp2580
F36.861524927459882
s(g185
g9
tp2581
F4.6378617844580106
s(g124
g17
tp2582
F-4.2000000000000002
s(g2
(g3
g4
(F7
I00
I00
I3
I7
ttRp2583
g12
tp2584
F3.1680489931068321
s(g501
g6
tp2585
F-2.4638579830946976
s(g469
g12
tp2586
I0
s(g70
g9
tp2587
I0
s(g844
g20
tp2588
F39.525058940249842
s(g918
g6
tp2589
F17.357273411968734
s(g16
g12
tp2590
F7.8170418007181883
s(g697
g20
tp2591
F44.533891052915592
s(g158
g9
tp2592
F18.730733138925697
s(g189
g6
tp2593
F18.022545721409855
s(g2
(g3
g4
(F8
I00
I00
I3
I13
ttRp2594
g17
tp2595
F-2.212893413703938
s(g2
(g3
g4
(F3
I00
I00
I0
I9
ttRp2596
g6
tp2597
F44.191249790238153
s(g80
g20
tp2598
F22.952712680365643
s(g619
g12
tp2599
F3.1270194283755104
s(g1429
g9
tp2600
I0
s(g831
g6
tp2601
F51.51807426183678
s(g42
g17
tp2602
F26.242464242145175
s(g614
g12
tp2603
I0
s(g38
g12
tp2604
I0
s(g2
(g3
g4
(F2
I01
I00
I4
I15
ttRp2605
g9
tp2606
F-9.4002737483003695
s(g46
g17
tp2607
F-0.64774632145715205
s(g28
g17
tp2608
F-3
s(g734
g20
tp2609
F43.153047018489275
s(g1340
g17
tp2610
F28.876499924163678
s(g303
g6
tp2611
F124.88723648521
s(g58
g17
tp2612
F3.9917676260480581
s(g16
g9
tp2613
F14.347796403919702
s(g1035
g17
tp2614
I0
s(g70
g12
tp2615
F41.848933030461623
s(g174
g6
tp2616
F3.0331404075282604
s(g78
g17
tp2617
F-3.2562034565018267
s(g1506
g9
tp2618
F-0.5014435076771524
s(g1353
g6
tp2619
F7.5440495750433154
s(g1815
g9
tp2620
F20.743810922004656
s(g323
g6
tp2621
I0
s(g86
g17
tp2622
F-1.0828
s(g325
g6
tp2623
F-0.072686041083800612
s(g2
(g3
g4
(F10
I00
I00
I0
I9
ttRp2624
g17
tp2625
F0.043945700404961263
s(g685
g6
tp2626
F27.032608639441698
s(g38
g20
tp2627
I0
s(g1236
g9
tp2628
I0
s(g1365
g17
tp2629
F34.96651049954675
s(g96
g12
tp2630
F39.322409380213813
s(g794
g6
tp2631
F2.0203122056967757
s(g570
g17
tp2632
F48.058873044903081
s(g457
g17
tp2633
F30.495653474295882
s(g206
g6
tp2634
F-7.1628568774398973
s(g550
g12
tp2635
F117.72710745671661
s(g2
(g3
g4
(F5
I00
I00
I4
I11
ttRp2636
g9
tp2637
F45.887387732556945
s(g947
g12
tp2638
F5.4951974347206489
s(g508
g12
tp2639
F5.4170221693965397
s(g1078
g12
tp2640
F-3.4984521162829991
s(g2
(g3
g4
(F7
I00
I00
I4
I15
ttRp2641
g9
tp2642
F16.363884930672722
s(g663
g6
tp2643
I0
s(g1884
g9
tp2644
I0
s(g1463
g20
tp2645
F9.4661950132864128
s(g401
g6
tp2646
F-5.2310207932359205
s(g2
(g3
g4
(F3
I00
I00
I2
I5
ttRp2647
g17
tp2648
F8.3929865029757451
s(g133
g12
tp2649
F9.0589253795620444
s(g1586
g6
tp2650
F10.899454246021428
s(g763
g12
tp2651
I0
s(g622
g9
tp2652
F25.634860866112092
s(g546
g20
tp2653
F0.057786519791681146
s(g110
g6
tp2654
F0.044000000000000039
s(g347
g20
tp2655
F7.7349904338275621
s(g118
g12
tp2656
I0
s(g206
g20
tp2657
F-0.65636409202843837
s(g1053
g20
tp2658
F29.35807728416469
s(g100
g20
tp2659
F23.702199654560282
s(g353
g20
tp2660
F19.663520313146162
s(g1948
g9
tp2661
F5.1696241908127636
s(g529
g6
tp2662
I0
s(g1276
g9
tp2663
I0
s(g582
g9
tp2664
I0
s(g160
g17
tp2665
F38.033237989199677
s(g738
g20
tp2666
I0
s(g2
(g3
g4
(F7
I00
I00
I2
I9
ttRp2667
g6
tp2668
F-0.61371520000000013
s(g651
g6
tp2669
F-4.52403336537947
s(g1665
g17
tp2670
F38.573392276951488
s(g182
g17
tp2671
F-3.8000000000000003
s(g2
(g3
g4
(F10
I00
I00
I1
I9
ttRp2672
g6
tp2673
F37.537635641938621
s(g1410
g9
tp2674
F-1
s(g1039
g9
tp2675
F35.685391224608445
s(g162
g12
tp2676
F-5.0429864815407814
s(g62
g20
tp2677
F45.396516060281392
s(g189
g12
tp2678
F19.866931818254834
s(g1032
g9
tp2679
F8.8072080369808141
s(g591
g20
tp2680
F42.064552043436677
s(g240
g9
tp2681
F34.806460838105764
s(g815
g20
tp2682
F25.355163956094316
s(g466
g20
tp2683
F3.9521175427991446
s(g54
g20
tp2684
F22.811782503279442
s(g160
g20
tp2685
F37.452166221615911
s(g1016
g20
tp2686
F38.295397285380666
s(g196
g12
tp2687
F17.910037672871898
s(g50
g12
tp2688
I0
s(g399
g17
tp2689
F12.036091494047563
s(g232
g6
tp2690
F-0.48322356436069214
s(g1582
g9
tp2691
F0.85930263243343175
s(g1360
g20
tp2692
I0
s(g501
g9
tp2693
I0
s(g273
g17
tp2694
F12.992730850985769
s(g1003
g6
tp2695
F48.155956249334537
s(g1948
g17
tp2696
F-3
s(g234
g20
tp2697
I0
s(g736
g6
tp2698
F63.034081846129439
s(g699
g6
tp2699
F26.77822010324801
s(g252
g6
tp2700
F37.072937884186366
s(g2
(g3
g4
(F6
I00
I00
I0
I13
ttRp2701
g20
tp2702
F-0.29900610187759247
s(g1251
g17
tp2703
F18.925280278706257
s(g488
g9
tp2704
F-0.41278392432144118
s(g1951
g20
tp2705
F20.524383331134239
s(g321
g20
tp2706
I0
s(g2
(g3
g4
(F8
I00
I00
I4
I11
ttRp2707
g20
tp2708
F0.722316668293701
s(g785
g20
tp2709
F1.9160257623708037
s(g222
g17
tp2710
F8.1379197297127845
s(g2
(g3
g4
(F10
I00
I00
I2
I5
ttRp2711
g20
tp2712
F21.890667831084922
s(g2281
g9
tp2713
F5.2420935135328097
s(g2
(g3
g4
(F6
I00
I00
I3
I15
ttRp2714
g6
tp2715
F22.310087226012957
s(g785
g17
tp2716
F3.4948096855402611
s(g1206
g9
tp2717
F46.353856243000884
s(g736
g9
tp2718
F45.3620956159169
s(g244
g12
tp2719
F44.416441879862163
s(g399
g9
tp2720
I0
s(g1314
g12
tp2721
F27.54428967278308
s(g1276
g12
tp2722
F15.378448221497447
s(g240
g12
tp2723
F1
s(g260
g12
tp2724
F28.505947482377398
s(g218
g20
tp2725
I0
s(g114
g6
tp2726
F6.3880485859318075
s(g48
g20
tp2727
I0
s(g1253
g12
tp2728
I0
s(g266
g17
tp2729
F19.436403512735023
s(g1504
g9
tp2730
F36.570693617135888
s(g940
g12
tp2731
I0
s(g2
(g3
g4
(F2
I00
I00
I3
I13
ttRp2732
g20
tp2733
F18.663988162215094
s(g1665
g6
tp2734
F3.4286510377435984
s(g264
g20
tp2735
F22.251451865422457
s(g892
g20
tp2736
F27.839208669338898
s(g22
g12
tp2737
F22.672477291634522
s(g74
g9
tp2738
I0
s(g1039
g20
tp2739
F59.860853287385964
s(g64
g17
tp2740
I0
s(g1022
g6
tp2741
F-0.40955035147729091
s(g1230
g12
tp2742
F14.102990610519683
s(g798
g20
tp2743
F-3.6840808459034164
s(g285
g17
tp2744
F3.324930249946525
s(g1348
g20
tp2745
I0
s(g844
g9
tp2746
I0
s(g2
(g3
g4
(F7
I00
I00
I2
I15
ttRp2747
g17
tp2748
F35.057821546652526
s(g2
(g3
g4
(F2
I01
I00
I4
I9
ttRp2749
g6
tp2750
F26.942688226096507
s(g1576
g20
tp2751
F47.607948230639131
s(g2281
g20
tp2752
F55.908011437673707
s(g2
(g3
g4
(F3
I00
I00
I2
I11
ttRp2753
g20
tp2754
F59.668466762358221
s(g280
g9
tp2755
F33.640538475389008
s(g1544
g17
tp2756
F16.097391100856928
s(g892
g12
tp2757
F23.570569161793912
s(g449
g12
tp2758
I0
s(g1843
g6
tp2759
F7.8019311493167898
s(g2
(g3
g4
(F8
I00
I00
I3
I5
ttRp2760
g17
tp2761
F-3
s(g1253
g20
tp2762
I0
s(g540
g12
tp2763
F1.6227182531269899
s(g546
g12
tp2764
F-1.5845011131035098
s(g333
g12
tp2765
F27.085335935014211
s(g974
g9
tp2766
F113.43054176581123
s(g1012
g9
tp2767
F42.091294363066112
s(g316
g9
tp2768
F42.828902123448579
s(g152
g17
tp2769
I0
s(g2281
g12
tp2770
F19.77864774335357
s(g460
g6
tp2771
F-0.35680000000000001
s(g1360
g9
tp2772
F-0.87818872383701385
s(g2
(g3
g4
(F3
I00
I00
I1
I9
ttRp2773
g20
tp2774
F18.338659078880255
s(g116
g6
tp2775
I0
s(g1576
g6
tp2776
F1.5003208041715366
s(g1251
g20
tp2777
F13.216835252780136
s(g566
g12
tp2778
F16.360147599772919
s(g531
g6
tp2779
F18.565162711141785
s(g469
g17
tp2780
I0
s.